
main.elf:     file format elf32-littlenios2
main.elf
architecture: nios2, flags 0x00000112:
EXEC_P, HAS_SYMS, D_PAGED
start address 0x020001b8

Program Header:
    LOAD off    0x00001000 vaddr 0x02000000 paddr 0x02000000 align 2**12
         filesz 0x00000020 memsz 0x00000020 flags r-x
    LOAD off    0x00001020 vaddr 0x02000020 paddr 0x02000020 align 2**12
         filesz 0x0001e778 memsz 0x0001e778 flags r-x
    LOAD off    0x0001f798 vaddr 0x0201e798 paddr 0x0202051c align 2**12
         filesz 0x00001d84 memsz 0x00001d84 flags rw-
    LOAD off    0x000222a0 vaddr 0x020222a0 paddr 0x020222a0 align 2**12
         filesz 0x00000000 memsz 0x00000a40 flags rw-

Sections:
Idx Name          Size      VMA       LMA       File off  Algn
  0 .entry        00000020  02000000  02000000  00001000  2**5
                  CONTENTS, ALLOC, LOAD, READONLY, CODE
  1 .exceptions   00000198  02000020  02000020  00001020  2**2
                  CONTENTS, ALLOC, LOAD, READONLY, CODE
  2 .text         0001d374  020001b8  020001b8  000011b8  2**2
                  CONTENTS, ALLOC, LOAD, READONLY, CODE
  3 .rodata       0000126c  0201d52c  0201d52c  0001e52c  2**2
                  CONTENTS, ALLOC, LOAD, READONLY, DATA
  4 .rwdata       00001d84  0201e798  0202051c  0001f798  2**2
                  CONTENTS, ALLOC, LOAD, DATA, SMALL_DATA
  5 .bss          00000a40  020222a0  020222a0  000222a0  2**2
                  ALLOC, SMALL_DATA
  6 .comment      00000023  00000000  00000000  0002151c  2**0
                  CONTENTS, READONLY
  7 .debug_aranges 000016e8  00000000  00000000  00021540  2**3
                  CONTENTS, READONLY, DEBUGGING
  8 .debug_info   0003eeab  00000000  00000000  00022c28  2**0
                  CONTENTS, READONLY, DEBUGGING
  9 .debug_abbrev 000103e5  00000000  00000000  00061ad3  2**0
                  CONTENTS, READONLY, DEBUGGING
 10 .debug_line   00013485  00000000  00000000  00071eb8  2**0
                  CONTENTS, READONLY, DEBUGGING
 11 .debug_frame  00002dfc  00000000  00000000  00085340  2**2
                  CONTENTS, READONLY, DEBUGGING
 12 .debug_str    00005189  00000000  00000000  0008813c  2**0
                  CONTENTS, READONLY, DEBUGGING
 13 .debug_loc    00022b2c  00000000  00000000  0008d2c5  2**0
                  CONTENTS, READONLY, DEBUGGING
 14 .debug_alt_sim_info 00000040  00000000  00000000  000afdf4  2**2
                  CONTENTS, READONLY, DEBUGGING
 15 .debug_ranges 00002970  00000000  00000000  000afe38  2**3
                  CONTENTS, READONLY, DEBUGGING
 16 .thread_model 00000003  00000000  00000000  000b7675  2**0
                  CONTENTS, READONLY
 17 .cpu          00000003  00000000  00000000  000b7678  2**0
                  CONTENTS, READONLY
 18 .qsys         00000001  00000000  00000000  000b767b  2**0
                  CONTENTS, READONLY
 19 .simulation_enabled 00000001  00000000  00000000  000b767c  2**0
                  CONTENTS, READONLY
 20 .sysid_hash   00000004  00000000  00000000  000b767d  2**0
                  CONTENTS, READONLY
 21 .sysid_base   00000004  00000000  00000000  000b7681  2**0
                  CONTENTS, READONLY
 22 .sysid_time   00000004  00000000  00000000  000b7685  2**0
                  CONTENTS, READONLY
 23 .stderr_dev   00000009  00000000  00000000  000b7689  2**0
                  CONTENTS, READONLY
 24 .stdin_dev    00000009  00000000  00000000  000b7692  2**0
                  CONTENTS, READONLY
 25 .stdout_dev   00000009  00000000  00000000  000b769b  2**0
                  CONTENTS, READONLY
 26 .sopc_system_name 0000000d  00000000  00000000  000b76a4  2**0
                  CONTENTS, READONLY
 27 .jdi          00004f78  00000000  00000000  000b76b1  2**0
                  CONTENTS, READONLY
 28 .sopcinfo     000a6d68  00000000  00000000  000bc629  2**0
                  CONTENTS, READONLY
SYMBOL TABLE:
02000000 l    d  .entry	00000000 .entry
02000020 l    d  .exceptions	00000000 .exceptions
020001b8 l    d  .text	00000000 .text
0201d52c l    d  .rodata	00000000 .rodata
0201e798 l    d  .rwdata	00000000 .rwdata
020222a0 l    d  .bss	00000000 .bss
00000000 l    d  .comment	00000000 .comment
00000000 l    d  .debug_aranges	00000000 .debug_aranges
00000000 l    d  .debug_info	00000000 .debug_info
00000000 l    d  .debug_abbrev	00000000 .debug_abbrev
00000000 l    d  .debug_line	00000000 .debug_line
00000000 l    d  .debug_frame	00000000 .debug_frame
00000000 l    d  .debug_str	00000000 .debug_str
00000000 l    d  .debug_loc	00000000 .debug_loc
00000000 l    d  .debug_alt_sim_info	00000000 .debug_alt_sim_info
00000000 l    d  .debug_ranges	00000000 .debug_ranges
00000000 l    df *ABS*	00000000 ../bsp/obj/HAL/src/crt0.o
020001f0 l       .text	00000000 alt_after_alt_main
00000000 l    df *ABS*	00000000 alt_exception_entry.o
02000094 l       .exceptions	00000000 alt_exception_unknown
00000000 l    df *ABS*	00000000 alt_irq_handler.c
00000000 l    df *ABS*	00000000 accelerometer_adxl345_spi.c
00000000 l    df *ABS*	00000000 controller.c
020222a4 l     O .bss	00000004 idx.2838
0202242c l     O .bss	00000054 PID_Pitch
02022480 l     O .bss	00000054 PID_Roll
020224d4 l     O .bss	00000054 PID_Yaw
02022528 l     O .bss	00000054 PID_Depth
0202257c l     O .bss	00000018 motor_duty_cycle
00000000 l    df *ABS*	00000000 interrupts.c
02004a00 l     F .text	00000164 timer_interrupts
020222b0 l     O .bss	00000004 counter.2483
02004b64 l     F .text	000001d4 pm_interrupt
00000000 l    df *ABS*	00000000 main.c
00000000 l    df *ABS*	00000000 pid.c
00000000 l    df *ABS*	00000000 pwm_force.c
00000000 l    df *ABS*	00000000 rs232.c
0200640c l     F .text	000000fc read_interrupt
020222c4 l     O .bss	00000004 index.2997
020225cc l     O .bss	00000023 buffer
020222c0 l     O .bss	00000001 initialized.2987
00000000 l    df *ABS*	00000000 terasic_spi.c
00000000 l    df *ABS*	00000000 utils.c
00000000 l    df *ABS*	00000000 w_atan2.c
00000000 l    df *ABS*	00000000 w_fmod.c
00000000 l    df *ABS*	00000000 w_pow.c
00000000 l    df *ABS*	00000000 w_sqrt.c
00000000 l    df *ABS*	00000000 e_atan2.c
00000000 l    df *ABS*	00000000 e_fmod.c
0201e0d0 l     O .rodata	00000010 Zero
00000000 l    df *ABS*	00000000 e_pow.c
0201e0e0 l     O .rodata	00000010 bp
0201e0f0 l     O .rodata	00000010 dp_l
0201e100 l     O .rodata	00000010 dp_h
00000000 l    df *ABS*	00000000 e_sqrt.c
00000000 l    df *ABS*	00000000 s_atan.c
0201e110 l     O .rodata	00000020 atanhi
0201e130 l     O .rodata	00000020 atanlo
00000000 l    df *ABS*	00000000 s_fabs.c
00000000 l    df *ABS*	00000000 s_finite.c
00000000 l    df *ABS*	00000000 s_isnand.c
00000000 l    df *ABS*	00000000 s_lib_ver.c
00000000 l    df *ABS*	00000000 s_matherr.c
00000000 l    df *ABS*	00000000 s_nan.c
00000000 l    df *ABS*	00000000 s_rint.c
0201e150 l     O .rodata	00000010 TWO52
00000000 l    df *ABS*	00000000 s_scalbn.c
00000000 l    df *ABS*	00000000 s_copysign.c
00000000 l    df *ABS*	00000000 fp-bit.c
00000000 l    df *ABS*	00000000 fp-bit.c
00000000 l    df *ABS*	00000000 fp-bit.c
00000000 l    df *ABS*	00000000 fp-bit.c
00000000 l    df *ABS*	00000000 fp-bit.c
0200a224 l     F .text	00000354 _fpadd_parts
00000000 l    df *ABS*	00000000 fp-bit.c
00000000 l    df *ABS*	00000000 fp-bit.c
00000000 l    df *ABS*	00000000 fp-bit.c
00000000 l    df *ABS*	00000000 fp-bit.c
00000000 l    df *ABS*	00000000 fp-bit.c
00000000 l    df *ABS*	00000000 fp-bit.c
00000000 l    df *ABS*	00000000 fp-bit.c
00000000 l    df *ABS*	00000000 fp-bit.c
00000000 l    df *ABS*	00000000 fp-bit.c
00000000 l    df *ABS*	00000000 fp-bit.c
00000000 l    df *ABS*	00000000 fp-bit.c
00000000 l    df *ABS*	00000000 fp-bit.c
00000000 l    df *ABS*	00000000 lib2-divmod.c
0200aed8 l     F .text	00000074 udivmodsi4
00000000 l    df *ABS*	00000000 lib2-divtable.c
00000000 l    df *ABS*	00000000 lib2-mul.c
00000000 l    df *ABS*	00000000 libgcc2.c
00000000 l    df *ABS*	00000000 libgcc2.c
00000000 l    df *ABS*	00000000 fp-bit.c
00000000 l    df *ABS*	00000000 fp-bit.c
00000000 l    df *ABS*	00000000 fp-bit.c
00000000 l    df *ABS*	00000000 fp-bit.c
00000000 l    df *ABS*	00000000 fp-bit.c
00000000 l    df *ABS*	00000000 fp-bit.c
00000000 l    df *ABS*	00000000 libgcc2.c
00000000 l    df *ABS*	00000000 libgcc2.c
00000000 l    df *ABS*	00000000 libgcc2.c
00000000 l    df *ABS*	00000000 errno.c
00000000 l    df *ABS*	00000000 impure.c
0201e9b8 l     O .rwdata	00000400 impure_data
00000000 l    df *ABS*	00000000 printf.c
00000000 l    df *ABS*	00000000 puts.c
00000000 l    df *ABS*	00000000 sprintf.c
00000000 l    df *ABS*	00000000 sscanf.c
0200ba60 l     F .text	00000008 eofread
00000000 l    df *ABS*	00000000 strcmp.c
00000000 l    df *ABS*	00000000 strlen.c
00000000 l    df *ABS*	00000000 strncmp.c
00000000 l    df *ABS*	00000000 vfprintf.c
0200bd88 l     F .text	00000034 __sprint_r
0201e2ca l     O .rodata	00000010 blanks.3515
0201e2da l     O .rodata	00000010 zeroes.3516
00000000 l    df *ABS*	00000000 vfscanf.c
0201e2f2 l     O .rodata	00000022 basefix.3427
00000000 l    df *ABS*	00000000 wsetup.c
00000000 l    df *ABS*	00000000 ctype_.c
0201e415 l     O .rodata	00000180 _ctype_b
00000000 l    df *ABS*	00000000 dtoa.c
0200f558 l     F .text	0000023c quorem
00000000 l    df *ABS*	00000000 fflush.c
00000000 l    df *ABS*	00000000 findfp.c
02010fc8 l     F .text	00000008 __fp_lock
02010fd0 l     F .text	00000008 __fp_unlock
00000000 l    df *ABS*	00000000 fread.c
00000000 l    df *ABS*	00000000 mallocr.c
00000000 l    df *ABS*	00000000 fvwrite.c
00000000 l    df *ABS*	00000000 fwalk.c
00000000 l    df *ABS*	00000000 iswspace.c
00000000 l    df *ABS*	00000000 locale.c
0201e5b8 l     O .rodata	00000030 lconv
00000000 l    df *ABS*	00000000 makebuf.c
00000000 l    df *ABS*	00000000 mallocr.c
00000000 l    df *ABS*	00000000 mbrtowc.c
00000000 l    df *ABS*	00000000 mbtowc_r.c
00000000 l    df *ABS*	00000000 memchr.c
00000000 l    df *ABS*	00000000 memcpy.c
00000000 l    df *ABS*	00000000 memmove.c
00000000 l    df *ABS*	00000000 memset.c
00000000 l    df *ABS*	00000000 mprec.c
0201e700 l     O .rodata	0000000c p05.2435
00000000 l    df *ABS*	00000000 mallocr.c
00000000 l    df *ABS*	00000000 refill.c
02014594 l     F .text	0000001c lflush
00000000 l    df *ABS*	00000000 s_isinfd.c
00000000 l    df *ABS*	00000000 sbrkr.c
00000000 l    df *ABS*	00000000 sccl.c
00000000 l    df *ABS*	00000000 sf_nan.c
00000000 l    df *ABS*	00000000 stdio.c
00000000 l    df *ABS*	00000000 strtod.c
0201f1cc l     O .rwdata	00000014 fpi.2015
0201e71c l     O .rodata	00000028 tinytens
0201f1e0 l     O .rwdata	00000014 fpinan.2051
00000000 l    df *ABS*	00000000 strtol.c
00000000 l    df *ABS*	00000000 strtoll_r.c
00000000 l    df *ABS*	00000000 strtoul.c
00000000 l    df *ABS*	00000000 strtoull_r.c
00000000 l    df *ABS*	00000000 ungetc.c
00000000 l    df *ABS*	00000000 writer.c
00000000 l    df *ABS*	00000000 mallocr.c
00000000 l    df *ABS*	00000000 closer.c
00000000 l    df *ABS*	00000000 fclose.c
00000000 l    df *ABS*	00000000 fstatr.c
00000000 l    df *ABS*	00000000 gdtoa-gethex.c
020172ec l     F .text	00000110 rshift
00000000 l    df *ABS*	00000000 gdtoa-hexnan.c
00000000 l    df *ABS*	00000000 int_errno.c
00000000 l    df *ABS*	00000000 isattyr.c
00000000 l    df *ABS*	00000000 lseekr.c
00000000 l    df *ABS*	00000000 readr.c
00000000 l    df *ABS*	00000000 libgcc2.c
00000000 l    df *ABS*	00000000 libgcc2.c
00000000 l    df *ABS*	00000000 libgcc2.c
00000000 l    df *ABS*	00000000 fp-bit.c
00000000 l    df *ABS*	00000000 fp-bit.c
00000000 l    df *ABS*	00000000 fp-bit.c
00000000 l    df *ABS*	00000000 fp-bit.c
00000000 l    df *ABS*	00000000 fp-bit.c
00000000 l    df *ABS*	00000000 fp-bit.c
00000000 l    df *ABS*	00000000 alt_close.c
02019008 l     F .text	00000050 alt_get_errno
00000000 l    df *ABS*	00000000 alt_dev.c
02019124 l     F .text	0000002c alt_dev_null_write
00000000 l    df *ABS*	00000000 alt_errno.c
00000000 l    df *ABS*	00000000 alt_fcntl.c
02019150 l     F .text	00000050 alt_get_errno
00000000 l    df *ABS*	00000000 alt_fstat.c
020192bc l     F .text	00000050 alt_get_errno
00000000 l    df *ABS*	00000000 alt_getchar.c
00000000 l    df *ABS*	00000000 alt_iic.c
00000000 l    df *ABS*	00000000 alt_iic_isr_register.c
00000000 l    df *ABS*	00000000 alt_irq_vars.c
00000000 l    df *ABS*	00000000 alt_isatty.c
020196c0 l     F .text	00000050 alt_get_errno
00000000 l    df *ABS*	00000000 alt_load.c
020197b4 l     F .text	0000006c alt_load_section
00000000 l    df *ABS*	00000000 alt_lseek.c
020198a0 l     F .text	00000050 alt_get_errno
00000000 l    df *ABS*	00000000 alt_main.c
00000000 l    df *ABS*	00000000 alt_malloc_lock.c
00000000 l    df *ABS*	00000000 alt_printf.c
00000000 l    df *ABS*	00000000 alt_putchar.c
00000000 l    df *ABS*	00000000 alt_putstr.c
00000000 l    df *ABS*	00000000 alt_read.c
02019d48 l     F .text	00000050 alt_get_errno
00000000 l    df *ABS*	00000000 alt_release_fd.c
00000000 l    df *ABS*	00000000 alt_sbrk.c
02020508 l     O .rwdata	00000004 heap_end
00000000 l    df *ABS*	00000000 alt_tick.c
00000000 l    df *ABS*	00000000 alt_usleep.c
00000000 l    df *ABS*	00000000 alt_write.c
0201a188 l     F .text	00000050 alt_get_errno
00000000 l    df *ABS*	00000000 alt_sys_init.c
0201a2c8 l     F .text	00000038 alt_dev_reg
0201f39c l     O .rwdata	000000c8 epcs
0201f464 l     O .rwdata	00001060 jtag_uart
00000000 l    df *ABS*	00000000 altera_avalon_epcs_flash_controller.c
0201a39c l     F .text	00000038 alt_flash_device_register
0201a428 l     F .text	0000028c alt_epcs_flash_query
0201a6b4 l     F .text	000000e8 alt_epcs_flash_memcmp
0201aa88 l     F .text	00000094 alt_epcs_test_address
00000000 l    df *ABS*	00000000 altera_avalon_jtag_uart_fd.c
00000000 l    df *ABS*	00000000 altera_avalon_jtag_uart_init.c
0201af50 l     F .text	00000204 altera_avalon_jtag_uart_irq
0201b154 l     F .text	000000a4 altera_avalon_jtag_uart_timeout
00000000 l    df *ABS*	00000000 altera_avalon_jtag_uart_ioctl.c
00000000 l    df *ABS*	00000000 altera_avalon_jtag_uart_read.c
00000000 l    df *ABS*	00000000 altera_avalon_jtag_uart_write.c
00000000 l    df *ABS*	00000000 altera_avalon_timer_sc.c
0201b790 l     F .text	00000074 alt_avalon_timer_sc_irq
00000000 l    df *ABS*	00000000 epcs_commands.c
0201b8e8 l     F .text	00000038 epcs_test_wip
0201b920 l     F .text	00000038 epcs_await_wip_released
00000000 l    df *ABS*	00000000 alt_alarm_start.c
00000000 l    df *ABS*	00000000 alt_busy_sleep.c
00000000 l    df *ABS*	00000000 alt_dcache_flush_all.c
00000000 l    df *ABS*	00000000 alt_dev_llist_insert.c
0201c160 l     F .text	00000050 alt_get_errno
00000000 l    df *ABS*	00000000 alt_do_ctors.c
00000000 l    df *ABS*	00000000 alt_do_dtors.c
00000000 l    df *ABS*	00000000 alt_flash_dev.c
00000000 l    df *ABS*	00000000 alt_icache_flush_all.c
00000000 l    df *ABS*	00000000 alt_io_redirect.c
0201c3dc l     F .text	000000e0 alt_open_fd
00000000 l    df *ABS*	00000000 alt_open.c
0201c534 l     F .text	00000050 alt_get_errno
0201c584 l     F .text	000000f0 alt_file_locked
00000000 l    df *ABS*	00000000 altera_nios2_qsys_irq.c
00000000 l    df *ABS*	00000000 altera_avalon_spi.c
00000000 l    df *ABS*	00000000 alt_find_dev.c
00000000 l    df *ABS*	00000000 alt_find_file.c
00000000 l    df *ABS*	00000000 alt_get_fd.c
00000000 l    df *ABS*	00000000 atexit.c
00000000 l    df *ABS*	00000000 exit.c
00000000 l    df *ABS*	00000000 fputs.c
00000000 l    df *ABS*	00000000 getc.c
00000000 l    df *ABS*	00000000 memcmp.c
00000000 l    df *ABS*	00000000 putc.c
00000000 l    df *ABS*	00000000 rget.c
00000000 l    df *ABS*	00000000 wbuf.c
00000000 l    df *ABS*	00000000 __atexit.c
00000000 l    df *ABS*	00000000 __call_atexit.c
00000000 l    df *ABS*	00000000 alt_exit.c
00000000 l    df *ABS*	00000000 
020222a0 g     O .bss	00000004 depth_sum
02013e24 g     F .text	00000074 _mprec_log10
0201a9fc g     F .text	0000008c alt_epcs_flash_get_info
02013f14 g     F .text	00000084 __any_on
02017e90 g     F .text	00000064 _isatty_r
0201e5e8 g     O .rodata	00000028 __mprec_tinytens
02022618 g     O .bss	00000320 pwm_from_force
020199c4 g     F .text	00000078 alt_main
0200b848 g     F .text	00000044 __ashldi3
0200b904 g     F .text	00000084 _puts_r
02022a50 g     O .bss	00000100 alt_irq
02009bec g     F .text	00000014 fabs
02017ef4 g     F .text	0000006c _lseek_r
02007af0 g     F .text	00000148 sqrt
0202051c g       *ABS*	00000000 __flash_rwdata_start
0200aac4 g     F .text	0000005c __eqdf2
02022ce0 g       *ABS*	00000000 __alt_heap_start
0200b8c8 g     F .text	0000003c printf
02007370 g     F .text	0000006c set_pwm_freq
020001f4 g     F .text	000000bc ADXL345_SPI_Init
020149e0 g     F .text	0000005c __sseek
0201106c g     F .text	0000010c __sinit
0201d0c8 g     F .text	0000013c __swbuf_r
02011fb8 g     F .text	0000009c _setlocale_r
020004d0 g     F .text	0000001c get_average_depth
02010fe4 g     F .text	00000078 __sfmoreglue
02016f7c g     F .text	0000001c ungetc
02019a5c g     F .text	00000020 __malloc_unlock
0201e798 g     O .rwdata	00000120 my_cmds
02014a44 g     F .text	00001548 _strtod_r
0200a000 g     F .text	0000013c __divsf3
02012ce0 g     F .text	0000018c memmove
0201105c g     F .text	00000010 _cleanup
02012f48 g     F .text	000000a8 _Balloc
0200a13c g     F .text	000000a4 __fixsfsi
02019d04 g     F .text	00000044 alt_putstr
0200ab7c g     F .text	00000064 __gtdf2
0200b88c g     F .text	00000010 __errno
0201b958 g     F .text	000000f8 epcs_sector_erase
02000000 g     F .entry	0000000c __reset
02007408 g     F .text	00000054 get_pwm_freq
02000020 g       *ABS*	00000000 __flash_exceptions_start
02017284 g     F .text	00000068 _fstat_r
02007f08 g     F .text	0000033c __ieee754_fmod
020222e8 g     O .bss	00000004 errno
0200ae40 g     F .text	00000038 __make_dp
0201d0b4 g     F .text	00000014 __srget
020204c8 g     O .rwdata	00000004 checksum_mode
0200f350 g     F .text	00000024 __svfscanf
020008a0 g     F .text	000000ac set_pid_constants_roll
0200b3e0 g     F .text	0000002c __make_fp
020222f4 g     O .bss	00000004 alt_argv
020284c4 g       *ABS*	00000000 _gp
0201a158 g     F .text	00000030 usleep
0200269c g     F .text	00002298 calculate_pid
02004d38 g     F .text	00000010 get_user_depth
0200745c g     F .text	0000000c get_depth
02007000 g     F .text	000000a8 alt_getline
0201f21c g     O .rwdata	00000180 alt_fd_list
02006200 g     F .text	0000020c pwm_of_force
0201cd48 g     F .text	00000070 _getc_r
0201cdb8 g     F .text	00000088 getc
020204c4 g     O .rwdata	00000004 cmd_len
0201bb94 g     F .text	00000068 epcs_write_status_register
0201c9f4 g     F .text	00000090 alt_find_dev
02012ba0 g     F .text	00000140 memcpy
02017c04 g     F .text	0000028c __hexnan
020222a8 g     O .bss	00000004 update_pid
02010fd8 g     F .text	0000000c _cleanup_r
0200ac98 g     F .text	000000d4 __floatsidf
02005d40 g     F .text	000000a4 PID_Output
0201c4bc g     F .text	00000078 alt_io_redirect
0200abe0 g     F .text	0000005c __ltdf2
0201d52c g       *ABS*	00000000 __DTOR_END__
0200b988 g     F .text	00000014 puts
02012a24 g     F .text	00000040 mbrtowc
02000420 g     F .text	0000000c ADXL345_SPI_IdRead
0201ab90 g     F .text	00000104 alt_epcs_flash_write_block
0200f304 g     F .text	0000004c _vfscanf_r
02013d80 g     F .text	000000a4 __ratio
0201b354 g     F .text	00000218 altera_avalon_jtag_uart_read
00000000  w      *UND*	00000000 malloc
0200b89c g     F .text	0000002c _printf_r
0200aff8 g     F .text	00000008 __udivsi3
02019710 g     F .text	000000a4 isatty
02011f80 g     F .text	00000038 iswspace
0201e638 g     O .rodata	000000c8 __mprec_tens
02005de4 g     F .text	000001e4 inverse_cubic
02012054 g     F .text	0000000c __locale_charset
02017fcc g     F .text	00000084 __fixunsdfsi
020222e4 g     O .bss	00000004 __malloc_top_pad
02004e74 g     F .text	000000c0 print_help
02016938 g     F .text	00000024 strtoul
020204e0 g     O .rwdata	00000004 __mb_cur_max
02012060 g     F .text	0000000c _localeconv_r
0201695c g     F .text	00000394 _strtoull_r
02013378 g     F .text	0000003c __i2b
0201193c g     F .text	000004e4 __sfvwrite_r
020147d4 g     F .text	00000064 _sbrk_r
02007468 g     F .text	0000006c get_accel
02017f60 g     F .text	0000006c _read_r
0201edb8 g     O .rwdata	0000000c __lc_ctype
020204fc g     O .rwdata	00000004 alt_max_fd
0200b630 g     F .text	00000104 __unpack_d
02017134 g     F .text	0000013c _fclose_r
02010f98 g     F .text	00000030 fflush
020222e0 g     O .bss	00000004 __malloc_max_sbrked_mem
0200a1e0 g     F .text	00000044 __extendsfdf2
02006578 g     F .text	00000284 rs232_shell
0200a578 g     F .text	00000054 __adddf3
020225b0 g     O .bss	0000001c power_failures
0201ab1c g     F .text	00000074 alt_epcs_flash_erase_block
02013af4 g     F .text	00000148 __b2d
020186a0 g     F .text	00000628 __umoddi3
020198f0 g     F .text	000000d4 lseek
020204d0 g     O .rwdata	00000004 __fdlib_version
020204d4 g     O .rwdata	00000004 _global_impure_ptr
020002b0 g     F .text	000000bc ADXL345_SPI_WaitDataReady
02007188 g     F .text	0000000c set_pow
0201be58 g     F .text	00000058 epcs_exit_4_bytes_mode
02013f98 g     F .text	000005fc _realloc_r
02022ce0 g       *ABS*	00000000 __bss_end
020195d0 g     F .text	000000f0 alt_iic_isr_register
020193bc g     F .text	0000003c alt_getchar
0201a054 g     F .text	00000104 alt_tick
02022950 g     O .bss	00000100 __hexdig
02018050 g     F .text	00000650 __udivdi3
0201e610 g     O .rodata	00000028 __mprec_bigtens
0201315c g     F .text	00000104 __s2b
02018e30 g     F .text	0000011c __floatunsidf
02013894 g     F .text	00000058 __mcmp
020204dc g     O .rwdata	00000004 __ctype_ptr
02011284 g     F .text	00000018 __fp_lock_all
02019584 g     F .text	0000004c alt_ic_irq_enabled
02019fbc g     F .text	00000098 alt_alarm_stop
02016340 g     F .text	00000024 strtol
020222ec g     O .bss	00000004 alt_irq_active
020009f8 g     F .text	000000ac set_pid_constants_depth
02004f34 g     F .text	00000c4c process_command
020000ec g     F .exceptions	000000cc alt_irq_handler
0201f1f4 g     O .rwdata	00000028 alt_dev_null
020073dc g     F .text	0000002c get_motor_duty_cycle
02009c5c g     F .text	000001f4 rint
0200b318 g     F .text	000000c8 __unpack_f
0200043c g     F .text	00000010 set_target_heading
0201c144 g     F .text	0000001c alt_dcache_flush_all
02013260 g     F .text	00000068 __hi0bits
0200ad6c g     F .text	000000d4 __fixdfsi
02006524 g     F .text	00000054 rs232_init
02015f8c g     F .text	0000001c strtod
0202051c g       *ABS*	00000000 __ram_rwdata_end
020204f4 g     O .rwdata	00000008 alt_dev_list
0201a1d8 g     F .text	000000f0 write
0201cebc g     F .text	000000bc _putc_r
02007c38 g     F .text	000002d0 __ieee754_atan2
02018d1c g     F .text	0000005c __gtsf2
0201e798 g       *ABS*	00000000 __ram_rodata_end
0201930c g     F .text	000000b0 fstat
0200b804 g     F .text	00000044 __lshrdi3
0200ac3c g     F .text	0000005c __ledf2
0201360c g     F .text	0000012c __pow5mult
020222d8 g     O .bss	00000004 __nlocale_changed
0200b000 g     F .text	00000008 __umodsi3
0201bd18 g     F .text	00000068 epcs_read_electronic_signature
02022ce0 g       *ABS*	00000000 end
0200b1ec g     F .text	0000012c __pack_f
0201ae90 g     F .text	000000c0 altera_avalon_jtag_uart_init
020070c4 g     F .text	000000b4 read_hex
0201d52c g       *ABS*	00000000 __CTOR_LIST__
04000000 g       *ABS*	00000000 __alt_stack_pointer
02006d54 g     F .text	000000d0 SPI_MultipleRead
0201b804 g     F .text	00000088 alt_avalon_timer_sc_init
0200b140 g     F .text	000000ac __clzsi2
020074d8 g     F .text	00000158 fmod
0201b56c g     F .text	00000224 altera_avalon_jtag_uart_write
02011274 g     F .text	00000004 __sfp_lock_acquire
02012aa8 g     F .text	000000f8 memchr
0200bdbc g     F .text	00001e7c ___vfprintf_internal_r
0200b99c g     F .text	00000058 _sprintf_r
0201166c g     F .text	000002d0 _free_r
02019a7c g     F .text	00000244 alt_printf
02007178 g     F .text	00000010 print_int
0201d068 g     F .text	0000004c __srget_r
0201d350 g     F .text	000001a0 __call_exitprocs
020222d4 g     O .bss	00000004 __mlocale_changed
020204e4 g     O .rwdata	00000004 __malloc_sbrk_base
020001b8 g     F .text	0000003c _start
020222fc g     O .bss	00000004 _alt_tick_rate
02016364 g     F .text	00000330 _strtoll_r
02013738 g     F .text	0000015c __lshift
0201c7ec g     F .text	00000208 alt_avalon_spi_command
020074d4 g     F .text	00000004 atan2
02022300 g     O .bss	00000004 _alt_nticks
02019d98 g     F .text	000000f4 read
0201a334 g     F .text	00000068 alt_sys_init
020067fc g     F .text	00000040 checksum_byte
020222c8 g     O .bss	00000006 motor_modes
0201d220 g     F .text	00000130 __register_exitproc
020003ac g     F .text	00000074 ADXL345_SPI_XYZ_Read
020222ac g     O .bss	00000004 enable_controller
0200bc8c g     F .text	000000fc strncmp
02022304 g     O .bss	00000100 depth_values
020133b4 g     F .text	00000258 __multiply
02008244 g     F .text	00001134 __ieee754_pow
0201b1f8 g     F .text	00000068 altera_avalon_jtag_uart_close
02007630 g     F .text	000004c0 pow
0200b008 g     F .text	00000028 __mulsi3
0201e798 g       *ABS*	00000000 __ram_rwdata_start
0201d52c g       *ABS*	00000000 __ram_rodata_start
020225f0 g     O .bss	00000028 __malloc_current_mallinfo
02018cc8 g     F .text	00000054 __eqsf2
02013c3c g     F .text	00000144 __d2b
0201b88c g     F .text	0000005c epcs_read_status_register
0200725c g     F .text	00000114 set_motor_duty_cycle
0201ad2c g     F .text	00000060 altera_avalon_jtag_uart_read_fd
02016694 g     F .text	000002a4 _strtoul_r
0201cb98 g     F .text	000000d4 alt_get_fd
02000638 g     F .text	000000a8 set_pid_constants
0201bff0 g     F .text	00000154 alt_busy_sleep
0200b734 g     F .text	000000d0 __fpcmp_parts_d
020170d0 g     F .text	00000064 _close_r
0201bd80 g     F .text	00000080 epcs_read_device_id
0201ce40 g     F .text	0000007c memcmp
0201adec g     F .text	00000050 altera_avalon_jtag_uart_close_fd
02004934 g     F .text	000000cc print_debug_controller
02022ce0 g       *ABS*	00000000 __alt_stack_base
0201ae3c g     F .text	00000054 altera_avalon_jtag_uart_ioctl_fd
02022404 g     O .bss	00000014 current_orientation
0200ba68 g     F .text	0000007c sscanf
020007f4 g     F .text	000000ac set_pid_constants_pitch
0200f3e4 g     F .text	00000174 __swsetup_r
02006ec8 g     F .text	00000138 init
0200a910 g     F .text	000001b4 __divdf3
02011178 g     F .text	000000fc __sfp
02013e98 g     F .text	0000007c __copybits
0201edc4 g     O .rwdata	00000408 __malloc_av_
02011280 g     F .text	00000004 __sinit_lock_release
0200a62c g     F .text	000002e4 __muldf3
02014904 g     F .text	00000054 __sread
0201e160 g     O .rodata	00000010 __thenan_sf
020114f0 g     F .text	00000040 fread
0201ca84 g     F .text	00000114 alt_find_file
0201c1b0 g     F .text	000000a0 alt_dev_llist_insert
02019a3c g     F .text	00000020 __malloc_lock
02019f0c g     F .text	000000b0 sbrk
02010db0 g     F .text	000001e8 _fflush_r
02017004 g     F .text	000000cc _calloc_r
02020514 g     O .rwdata	00000008 alt_flash_dev_list
0201e8b8 g     O .rwdata	00000100 __divsi3_table
020222a0 g       *ABS*	00000000 __bss_start
02022938 g     O .bss	00000018 motor_duty_cycles
02012e6c g     F .text	000000dc memset
02005b80 g     F .text	00000024 main
02004de4 g     F .text	00000090 init_interrupts
020222f8 g     O .bss	00000004 alt_envp
020222dc g     O .bss	00000004 __malloc_max_total_mem
02007194 g     F .text	000000a8 set_motor_dir
0201ad8c g     F .text	00000060 altera_avalon_jtag_uart_write_fd
0201d204 g     F .text	0000001c __swbuf
020204cc g     O .rwdata	00000004 pwm_period
02018d78 g     F .text	00000054 __ltsf2
020112b4 g     F .text	0000023c _fread_r
02014a3c g     F .text	00000008 __sclose
02009c48 g     F .text	00000008 matherr
04000000 g       *ABS*	00000000 __alt_heap_limit
02017270 g     F .text	00000014 fclose
020160c8 g     F .text	00000278 _strtol_r
0200ae78 g     F .text	00000060 __truncdfsf2
02022b50 g     O .bss	00000190 _atexit0
0200f794 g     F .text	0000161c _dtoa_r
0201223c g     F .text	00000784 _malloc_r
02020500 g     O .rwdata	00000004 alt_errno
020004ec g     F .text	0000014c get_orientation
02016cf0 g     F .text	000000f0 __submore
02004d48 g     F .text	0000009c set_controller
02006af4 g     F .text	00000130 write_str
02011e20 g     F .text	000000a8 _fwalk
02012a64 g     F .text	00000044 _mbtowc_r
0201cf78 g     F .text	000000f0 putc
0200af4c g     F .text	00000050 __divsi3
0201e170 g     O .rodata	00000014 __thenan_df
02011530 g     F .text	0000013c _malloc_trim_r
0201d52c g       *ABS*	00000000 __CTOR_END__
02009c00 g     F .text	0000001c finite
0201a79c g     F .text	00000260 alt_epcs_flash_write
0200bb5c g     F .text	000000a4 strcmp
0201d52c g       *ABS*	00000000 __flash_rodata_start
0201d52c g       *ABS*	00000000 __DTOR_LIST__
0200723c g     F .text	00000020 get_motor_dir
0200042c g     F .text	00000010 set_target_speed
02009fe4 g     F .text	0000001c copysign
0200ab20 g     F .text	0000005c __nedf2
0200045c g     F .text	00000074 update_depth_reading
0201a300 g     F .text	00000034 alt_irq_init
02019e8c g     F .text	00000080 alt_release_fd
0200963c g     F .text	000005b0 atan
02006cd4 g     F .text	00000080 SPI_Write
0200b9f4 g     F .text	0000006c sprintf
0201e184 g     O .rodata	00000100 __clz_tab
020222d0 g     O .bss	00000004 _PathLocale
02015fa8 g     F .text	00000120 strtof
0201cc6c g     F .text	00000014 atexit
02016f98 g     F .text	0000006c _write_r
0201206c g     F .text	0000001c setlocale
020070a8 g     F .text	0000001c service_main_loop
020148fc g     F .text	00000008 nanf
020204d8 g     O .rwdata	00000004 _impure_ptr
020222f0 g     O .bss	00000004 alt_argc
02009e50 g     F .text	00000194 scalbn
020129c0 g     F .text	00000064 _mbrtowc_r
0201c2ac g     F .text	0000005c _do_dtors
0200094c g     F .text	000000ac set_pid_constants_yaw
02005fc8 g     F .text	00000238 init_lookup
020145b0 g     F .text	000001ec __srefill_r
02000020 g       .exceptions	00000000 alt_irq_entry
02013a94 g     F .text	00000060 __ulp
0201479c g     F .text	00000038 __isinfd
0201129c g     F .text	00000018 __fp_unlock_all
020068bc g     F .text	00000238 write_cmd
0200044c g     F .text	00000010 set_target_depth
020204ec g     O .rwdata	00000008 alt_fs_list
02009c50 g     F .text	0000000c nan
02000020 g       *ABS*	00000000 __ram_exceptions_start
02012088 g     F .text	0000000c localeconv
0201ba50 g     F .text	000000f4 epcs_read_buffer
02000ae0 g     F .text	00001bbc stabilizing_motors_force_to_pwm
02009378 g     F .text	000002c4 __ieee754_sqrt
020222bc g     O .bss	00000004 yaw
0201a3d4 g     F .text	00000054 alt_epcs_flash_init
020193f8 g     F .text	00000050 alt_ic_isr_register
020173fc g     F .text	00000090 __hexdig_init
0200bae4 g     F .text	00000078 _sscanf_r
0202051c g       *ABS*	00000000 _edata
02022ce0 g       *ABS*	00000000 _end
0201c308 g     F .text	00000068 alt_flash_open_dev
02000aa4 g     F .text	0000003c motor_force_to_pwm
020001b8 g       *ABS*	00000000 __ram_exceptions_end
0200f374 g     F .text	00000070 vfscanf
0201b260 g     F .text	000000f4 altera_avalon_jtag_uart_ioctl
0201ccb8 g     F .text	00000074 _fputs_r
020222b8 g     O .bss	00000004 pitch
020222b4 g     O .bss	00000004 roll
020006e0 g     F .text	00000114 pid_init
020194e4 g     F .text	000000a0 alt_ic_irq_disable
0201be00 g     F .text	00000058 epcs_enter_4_bytes_mode
02014958 g     F .text	00000088 __swrite
020204e8 g     O .rwdata	00000004 __malloc_trim_threshold
0201c7cc g     F .text	00000020 altera_nios2_qsys_irq_init
0201cc80 g     F .text	00000038 exit
02011ec8 g     F .text	000000b8 _fwalk_reent
020138ec g     F .text	000001a8 __mdiff
0201c370 g     F .text	00000050 alt_flash_close_dev
0200af9c g     F .text	0000005c __modsi3
04000000 g       *ABS*	00000000 __alt_data_end
02000020 g     F .exceptions	00000000 alt_exception
02011278 g     F .text	00000004 __sfp_lock_release
02000000 g       *ABS*	00000000 __alt_mem_sdram
0200036c g     F .text	00000040 ADXL345_SPI_IsDataReady
02014838 g     F .text	000000c4 __sccl
0201e314 g     O .rodata	00000101 _ctype_
02006c40 g     F .text	00000094 SPI_MultipleWrite
02005ba4 g     F .text	00000030 PID_Reset
02018f4c g     F .text	000000bc __fpcmp_parts_f
0201d4f0 g     F .text	0000003c _exit
02009c1c g     F .text	0000002c __isnand
0201beb0 g     F .text	00000140 alt_alarm_start
0200b030 g     F .text	00000110 __muldi3
02022594 g     O .bss	0000001c old_power_failures
02012094 g     F .text	000001a8 __smakebuf_r
0200bc00 g     F .text	0000008c strlen
0201bb44 g     F .text	00000050 epcs_write_enable
0201c674 g     F .text	00000158 open
02018dcc g     F .text	00000064 __gedf2
02019cc0 g     F .text	00000044 alt_putchar
0201748c g     F .text	00000778 __gethex
0201c3c0 g     F .text	0000001c alt_icache_flush_all
02006508 g     F .text	0000001c get_imu_orientation
02006c24 g     F .text	0000001c SPI_Init
0201cd2c g     F .text	0000001c fputs
02020504 g     O .rwdata	00000004 alt_priority_mask
02019448 g     F .text	0000009c alt_ic_irq_enable
0200dc38 g     F .text	00000024 __vfprintf_internal
05000000 g       *ABS*	00000000 __alt_mem_epcs
0200a5cc g     F .text	00000060 __subdf3
0201ac94 g     F .text	00000098 alt_epcs_flash_read
020191a0 g     F .text	0000011c fcntl
02006e24 g     F .text	000000a4 SPI_Read
020132c8 g     F .text	000000b0 __lo0bits
0200dc5c g     F .text	000016a8 __svfscanf_r
0200683c g     F .text	00000080 checksum_short
0202050c g     O .rwdata	00000008 alt_alarm_list
02016de0 g     F .text	0000019c _ungetc_r
0201c250 g     F .text	0000005c _do_ctors
02005bd4 g     F .text	0000016c PID_Update
02019058 g     F .text	000000cc close
02019820 g     F .text	00000080 alt_load
0200b40c g     F .text	00000224 __pack_d
00000000  w      *UND*	00000000 free
0201127c g     F .text	00000004 __sinit_lock_acquire
0201bbfc g     F .text	0000011c epcs_write_buffer
02013018 g     F .text	00000144 __multadd
02012ff0 g     F .text	00000028 _Bfree
02022418 g     O .bss	00000014 target_orientation



Disassembly of section .entry:

02000000 <__reset>:
 2000000:	00408034 	movhi	at,512
 2000004:	08406e14 	ori	at,at,440
 2000008:	0800683a 	jmp	at
	...

Disassembly of section .exceptions:

02000020 <alt_exception>:
 2000020:	deffed04 	addi	sp,sp,-76
 2000024:	dfc00015 	stw	ra,0(sp)
 2000028:	d8400215 	stw	at,8(sp)
 200002c:	d8800315 	stw	r2,12(sp)
 2000030:	d8c00415 	stw	r3,16(sp)
 2000034:	d9000515 	stw	r4,20(sp)
 2000038:	d9400615 	stw	r5,24(sp)
 200003c:	d9800715 	stw	r6,28(sp)
 2000040:	d9c00815 	stw	r7,32(sp)
 2000044:	000b307a 	rdctl	r5,estatus
 2000048:	da000915 	stw	r8,36(sp)
 200004c:	da400a15 	stw	r9,40(sp)
 2000050:	da800b15 	stw	r10,44(sp)
 2000054:	dac00c15 	stw	r11,48(sp)
 2000058:	db000d15 	stw	r12,52(sp)
 200005c:	db400e15 	stw	r13,56(sp)
 2000060:	db800f15 	stw	r14,60(sp)
 2000064:	dbc01015 	stw	r15,64(sp)
 2000068:	d9401115 	stw	r5,68(sp)
 200006c:	ebffff04 	addi	r15,ea,-4
 2000070:	dbc01215 	stw	r15,72(sp)
 2000074:	0009313a 	rdctl	r4,ipending
 2000078:	2880004c 	andi	r2,r5,1
 200007c:	10000326 	beq	r2,zero,200008c <alt_exception+0x6c>
 2000080:	20000226 	beq	r4,zero,200008c <alt_exception+0x6c>
 2000084:	20000ec0 	call	20000ec <alt_irq_handler>
 2000088:	00000306 	br	2000098 <alt_exception_unknown+0x4>
 200008c:	df401215 	stw	ea,72(sp)
 2000090:	e8bfff17 	ldw	r2,-4(ea)

02000094 <alt_exception_unknown>:
 2000094:	003da03a 	break	0
 2000098:	d9401117 	ldw	r5,68(sp)
 200009c:	df401217 	ldw	ea,72(sp)
 20000a0:	dfc00017 	ldw	ra,0(sp)
 20000a4:	2801707a 	wrctl	estatus,r5
 20000a8:	d8400217 	ldw	at,8(sp)
 20000ac:	d8800317 	ldw	r2,12(sp)
 20000b0:	d8c00417 	ldw	r3,16(sp)
 20000b4:	d9000517 	ldw	r4,20(sp)
 20000b8:	d9400617 	ldw	r5,24(sp)
 20000bc:	d9800717 	ldw	r6,28(sp)
 20000c0:	d9c00817 	ldw	r7,32(sp)
 20000c4:	da000917 	ldw	r8,36(sp)
 20000c8:	da400a17 	ldw	r9,40(sp)
 20000cc:	da800b17 	ldw	r10,44(sp)
 20000d0:	dac00c17 	ldw	r11,48(sp)
 20000d4:	db000d17 	ldw	r12,52(sp)
 20000d8:	db400e17 	ldw	r13,56(sp)
 20000dc:	db800f17 	ldw	r14,60(sp)
 20000e0:	dbc01017 	ldw	r15,64(sp)
 20000e4:	dec01304 	addi	sp,sp,76
 20000e8:	ef80083a 	eret

020000ec <alt_irq_handler>:
 20000ec:	defff904 	addi	sp,sp,-28
 20000f0:	dfc00615 	stw	ra,24(sp)
 20000f4:	df000515 	stw	fp,20(sp)
 20000f8:	df000504 	addi	fp,sp,20
 20000fc:	0001883a 	nop
 2000100:	0005313a 	rdctl	r2,ipending
 2000104:	e0bffe15 	stw	r2,-8(fp)
 2000108:	e0bffe17 	ldw	r2,-8(fp)
 200010c:	e0bffb15 	stw	r2,-20(fp)
 2000110:	e03ffd15 	stw	zero,-12(fp)
 2000114:	00800044 	movi	r2,1
 2000118:	e0bffc15 	stw	r2,-16(fp)
 200011c:	e0fffb17 	ldw	r3,-20(fp)
 2000120:	e0bffc17 	ldw	r2,-16(fp)
 2000124:	1884703a 	and	r2,r3,r2
 2000128:	10001726 	beq	r2,zero,2000188 <alt_irq_handler+0x9c>
 200012c:	00c080b4 	movhi	r3,514
 2000130:	18ca9404 	addi	r3,r3,10832
 2000134:	e0bffd17 	ldw	r2,-12(fp)
 2000138:	100490fa 	slli	r2,r2,3
 200013c:	1885883a 	add	r2,r3,r2
 2000140:	10c00017 	ldw	r3,0(r2)
 2000144:	010080b4 	movhi	r4,514
 2000148:	210a9404 	addi	r4,r4,10832
 200014c:	e0bffd17 	ldw	r2,-12(fp)
 2000150:	100490fa 	slli	r2,r2,3
 2000154:	2085883a 	add	r2,r4,r2
 2000158:	10800104 	addi	r2,r2,4
 200015c:	10800017 	ldw	r2,0(r2)
 2000160:	1009883a 	mov	r4,r2
 2000164:	183ee83a 	callr	r3
 2000168:	0001883a 	nop
 200016c:	0005313a 	rdctl	r2,ipending
 2000170:	e0bfff15 	stw	r2,-4(fp)
 2000174:	e0bfff17 	ldw	r2,-4(fp)
 2000178:	e0bffb15 	stw	r2,-20(fp)
 200017c:	e0bffb17 	ldw	r2,-20(fp)
 2000180:	103fe31e 	bne	r2,zero,2000110 <alt_irq_handler+0x24>
 2000184:	00000706 	br	20001a4 <alt_irq_handler+0xb8>
 2000188:	e0bffc17 	ldw	r2,-16(fp)
 200018c:	1085883a 	add	r2,r2,r2
 2000190:	e0bffc15 	stw	r2,-16(fp)
 2000194:	e0bffd17 	ldw	r2,-12(fp)
 2000198:	10800044 	addi	r2,r2,1
 200019c:	e0bffd15 	stw	r2,-12(fp)
 20001a0:	003fde06 	br	200011c <alt_irq_handler+0x30>
 20001a4:	e037883a 	mov	sp,fp
 20001a8:	dfc00117 	ldw	ra,4(sp)
 20001ac:	df000017 	ldw	fp,0(sp)
 20001b0:	dec00204 	addi	sp,sp,8
 20001b4:	f800283a 	ret

Disassembly of section .text:

020001b8 <_start>:
 20001b8:	06c10034 	movhi	sp,1024
 20001bc:	dec00014 	ori	sp,sp,0
 20001c0:	068080b4 	movhi	gp,514
 20001c4:	d6a13114 	ori	gp,gp,33988
 20001c8:	008080b4 	movhi	r2,514
 20001cc:	1088a814 	ori	r2,r2,8864
 20001d0:	00c080b4 	movhi	r3,514
 20001d4:	18cb3814 	ori	r3,r3,11488
 20001d8:	10c00326 	beq	r2,r3,20001e8 <_start+0x30>
 20001dc:	10000015 	stw	zero,0(r2)
 20001e0:	10800104 	addi	r2,r2,4
 20001e4:	10fffd36 	bltu	r2,r3,20001dc <_start+0x24>
 20001e8:	20198200 	call	2019820 <alt_load>
 20001ec:	20199c40 	call	20199c4 <alt_main>

020001f0 <alt_after_alt_main>:
 20001f0:	003fff06 	br	20001f0 <alt_after_alt_main>

020001f4 <ADXL345_SPI_Init>:
 20001f4:	defffd04 	addi	sp,sp,-12
 20001f8:	dfc00215 	stw	ra,8(sp)
 20001fc:	dc400115 	stw	r17,4(sp)
 2000200:	dc000015 	stw	r16,0(sp)
 2000204:	2021883a 	mov	r16,r4
 2000208:	2006c240 	call	2006c24 <SPI_Init>
 200020c:	8009883a 	mov	r4,r16
 2000210:	01400c44 	movi	r5,49
 2000214:	01801004 	movi	r6,64
 2000218:	2006cd40 	call	2006cd4 <SPI_Write>
 200021c:	1023883a 	mov	r17,r2
 2000220:	8009883a 	mov	r4,r16
 2000224:	8c403fcc 	andi	r17,r17,255
 2000228:	2006c240 	call	2006c24 <SPI_Init>
 200022c:	8800061e 	bne	r17,zero,2000248 <ADXL345_SPI_Init+0x54>
 2000230:	0005883a 	mov	r2,zero
 2000234:	dfc00217 	ldw	ra,8(sp)
 2000238:	dc400117 	ldw	r17,4(sp)
 200023c:	dc000017 	ldw	r16,0(sp)
 2000240:	dec00304 	addi	sp,sp,12
 2000244:	f800283a 	ret
 2000248:	8009883a 	mov	r4,r16
 200024c:	01400b04 	movi	r5,44
 2000250:	01800304 	movi	r6,12
 2000254:	2006cd40 	call	2006cd4 <SPI_Write>
 2000258:	10803fcc 	andi	r2,r2,255
 200025c:	103ff426 	beq	r2,zero,2000230 <ADXL345_SPI_Init+0x3c>
 2000260:	8009883a 	mov	r4,r16
 2000264:	01400b84 	movi	r5,46
 2000268:	01802004 	movi	r6,128
 200026c:	2006cd40 	call	2006cd4 <SPI_Write>
 2000270:	10803fcc 	andi	r2,r2,255
 2000274:	103fee26 	beq	r2,zero,2000230 <ADXL345_SPI_Init+0x3c>
 2000278:	8009883a 	mov	r4,r16
 200027c:	01400b44 	movi	r5,45
 2000280:	000d883a 	mov	r6,zero
 2000284:	2006cd40 	call	2006cd4 <SPI_Write>
 2000288:	10c03fcc 	andi	r3,r2,255
 200028c:	183fe926 	beq	r3,zero,2000234 <ADXL345_SPI_Init+0x40>
 2000290:	8009883a 	mov	r4,r16
 2000294:	01400b44 	movi	r5,45
 2000298:	01800204 	movi	r6,8
 200029c:	dfc00217 	ldw	ra,8(sp)
 20002a0:	dc400117 	ldw	r17,4(sp)
 20002a4:	dc000017 	ldw	r16,0(sp)
 20002a8:	dec00304 	addi	sp,sp,12
 20002ac:	2006cd41 	jmpi	2006cd4 <SPI_Write>

020002b0 <ADXL345_SPI_WaitDataReady>:
 20002b0:	defff904 	addi	sp,sp,-28
 20002b4:	dc800315 	stw	r18,12(sp)
 20002b8:	048080b4 	movhi	r18,514
 20002bc:	9488c004 	addi	r18,r18,8960
 20002c0:	dd000515 	stw	r20,20(sp)
 20002c4:	95000017 	ldw	r20,0(r18)
 20002c8:	dcc00415 	stw	r19,16(sp)
 20002cc:	dc400215 	stw	r17,8(sp)
 20002d0:	dfc00615 	stw	ra,24(sp)
 20002d4:	dc000115 	stw	r16,4(sp)
 20002d8:	2023883a 	mov	r17,r4
 20002dc:	04c080b4 	movhi	r19,514
 20002e0:	9cc8bf04 	addi	r19,r19,8956
 20002e4:	8809883a 	mov	r4,r17
 20002e8:	01400c04 	movi	r5,48
 20002ec:	d80d883a 	mov	r6,sp
 20002f0:	2006e240 	call	2006e24 <SPI_Read>
 20002f4:	10803fcc 	andi	r2,r2,255
 20002f8:	01007d04 	movi	r4,500
 20002fc:	10000226 	beq	r2,zero,2000308 <ADXL345_SPI_WaitDataReady+0x58>
 2000300:	d8800007 	ldb	r2,0(sp)
 2000304:	10001016 	blt	r2,zero,2000348 <ADXL345_SPI_WaitDataReady+0x98>
 2000308:	201a1580 	call	201a158 <usleep>
 200030c:	99000017 	ldw	r4,0(r19)
 2000310:	94000017 	ldw	r16,0(r18)
 2000314:	014000c4 	movi	r5,3
 2000318:	8521c83a 	sub	r16,r16,r20
 200031c:	200aff80 	call	200aff8 <__udivsi3>
 2000320:	80bff036 	bltu	r16,r2,20002e4 <ADXL345_SPI_WaitDataReady+0x34>
 2000324:	0005883a 	mov	r2,zero
 2000328:	dfc00617 	ldw	ra,24(sp)
 200032c:	dd000517 	ldw	r20,20(sp)
 2000330:	dcc00417 	ldw	r19,16(sp)
 2000334:	dc800317 	ldw	r18,12(sp)
 2000338:	dc400217 	ldw	r17,8(sp)
 200033c:	dc000117 	ldw	r16,4(sp)
 2000340:	dec00704 	addi	sp,sp,28
 2000344:	f800283a 	ret
 2000348:	00800044 	movi	r2,1
 200034c:	dfc00617 	ldw	ra,24(sp)
 2000350:	dd000517 	ldw	r20,20(sp)
 2000354:	dcc00417 	ldw	r19,16(sp)
 2000358:	dc800317 	ldw	r18,12(sp)
 200035c:	dc400217 	ldw	r17,8(sp)
 2000360:	dc000117 	ldw	r16,4(sp)
 2000364:	dec00704 	addi	sp,sp,28
 2000368:	f800283a 	ret

0200036c <ADXL345_SPI_IsDataReady>:
 200036c:	defffe04 	addi	sp,sp,-8
 2000370:	01400c04 	movi	r5,48
 2000374:	d80d883a 	mov	r6,sp
 2000378:	dfc00115 	stw	ra,4(sp)
 200037c:	2006e240 	call	2006e24 <SPI_Read>
 2000380:	10803fcc 	andi	r2,r2,255
 2000384:	10000526 	beq	r2,zero,200039c <ADXL345_SPI_IsDataReady+0x30>
 2000388:	d8800003 	ldbu	r2,0(sp)
 200038c:	1004d1fa 	srli	r2,r2,7
 2000390:	dfc00117 	ldw	ra,4(sp)
 2000394:	dec00204 	addi	sp,sp,8
 2000398:	f800283a 	ret
 200039c:	0005883a 	mov	r2,zero
 20003a0:	dfc00117 	ldw	ra,4(sp)
 20003a4:	dec00204 	addi	sp,sp,8
 20003a8:	f800283a 	ret

020003ac <ADXL345_SPI_XYZ_Read>:
 20003ac:	defffc04 	addi	sp,sp,-16
 20003b0:	dc000215 	stw	r16,8(sp)
 20003b4:	d80d883a 	mov	r6,sp
 20003b8:	2821883a 	mov	r16,r5
 20003bc:	01c00184 	movi	r7,6
 20003c0:	01400c84 	movi	r5,50
 20003c4:	dfc00315 	stw	ra,12(sp)
 20003c8:	2006d540 	call	2006d54 <SPI_MultipleRead>
 20003cc:	10c03fcc 	andi	r3,r2,255
 20003d0:	18000f26 	beq	r3,zero,2000410 <ADXL345_SPI_XYZ_Read+0x64>
 20003d4:	d9400043 	ldbu	r5,1(sp)
 20003d8:	d90000c3 	ldbu	r4,3(sp)
 20003dc:	d8c00143 	ldbu	r3,5(sp)
 20003e0:	280a923a 	slli	r5,r5,8
 20003e4:	da000003 	ldbu	r8,0(sp)
 20003e8:	2008923a 	slli	r4,r4,8
 20003ec:	d9c00083 	ldbu	r7,2(sp)
 20003f0:	1806923a 	slli	r3,r3,8
 20003f4:	d9800103 	ldbu	r6,4(sp)
 20003f8:	2a0ab03a 	or	r5,r5,r8
 20003fc:	21c8b03a 	or	r4,r4,r7
 2000400:	1986b03a 	or	r3,r3,r6
 2000404:	8140000d 	sth	r5,0(r16)
 2000408:	8100008d 	sth	r4,2(r16)
 200040c:	80c0010d 	sth	r3,4(r16)
 2000410:	dfc00317 	ldw	ra,12(sp)
 2000414:	dc000217 	ldw	r16,8(sp)
 2000418:	dec00404 	addi	sp,sp,16
 200041c:	f800283a 	ret

02000420 <ADXL345_SPI_IdRead>:
 2000420:	280d883a 	mov	r6,r5
 2000424:	000b883a 	mov	r5,zero
 2000428:	2006e241 	jmpi	2006e24 <SPI_Read>

0200042c <set_target_speed>:
 200042c:	008080b4 	movhi	r2,514
 2000430:	10890604 	addi	r2,r2,9240
 2000434:	11000315 	stw	r4,12(r2)
 2000438:	f800283a 	ret

0200043c <set_target_heading>:
 200043c:	008080b4 	movhi	r2,514
 2000440:	10890604 	addi	r2,r2,9240
 2000444:	11000015 	stw	r4,0(r2)
 2000448:	f800283a 	ret

0200044c <set_target_depth>:
 200044c:	008080b4 	movhi	r2,514
 2000450:	10890604 	addi	r2,r2,9240
 2000454:	11000415 	stw	r4,16(r2)
 2000458:	f800283a 	ret

0200045c <update_depth_reading>:
 200045c:	d0a77817 	ldw	r2,-25120(gp)
 2000460:	defffe04 	addi	sp,sp,-8
 2000464:	dc000015 	stw	r16,0(sp)
 2000468:	1085883a 	add	r2,r2,r2
 200046c:	040080b4 	movhi	r16,514
 2000470:	8408c104 	addi	r16,r16,8964
 2000474:	1085883a 	add	r2,r2,r2
 2000478:	8085883a 	add	r2,r16,r2
 200047c:	d0e77717 	ldw	r3,-25124(gp)
 2000480:	10800017 	ldw	r2,0(r2)
 2000484:	dfc00115 	stw	ra,4(sp)
 2000488:	1885c83a 	sub	r2,r3,r2
 200048c:	d0a77715 	stw	r2,-25124(gp)
 2000490:	200745c0 	call	200745c <get_depth>
 2000494:	d0e77817 	ldw	r3,-25120(gp)
 2000498:	d1677717 	ldw	r5,-25124(gp)
 200049c:	18c9883a 	add	r4,r3,r3
 20004a0:	2109883a 	add	r4,r4,r4
 20004a4:	18c00044 	addi	r3,r3,1
 20004a8:	8121883a 	add	r16,r16,r4
 20004ac:	288b883a 	add	r5,r5,r2
 20004b0:	18c00fcc 	andi	r3,r3,63
 20004b4:	80800015 	stw	r2,0(r16)
 20004b8:	d1677715 	stw	r5,-25124(gp)
 20004bc:	d0e77815 	stw	r3,-25120(gp)
 20004c0:	dfc00117 	ldw	ra,4(sp)
 20004c4:	dc000017 	ldw	r16,0(sp)
 20004c8:	dec00204 	addi	sp,sp,8
 20004cc:	f800283a 	ret

020004d0 <get_average_depth>:
 20004d0:	d0a77717 	ldw	r2,-25124(gp)
 20004d4:	10000216 	blt	r2,zero,20004e0 <get_average_depth+0x10>
 20004d8:	1005d1ba 	srai	r2,r2,6
 20004dc:	f800283a 	ret
 20004e0:	10800fc4 	addi	r2,r2,63
 20004e4:	1005d1ba 	srai	r2,r2,6
 20004e8:	f800283a 	ret

020004ec <get_orientation>:
 20004ec:	defff904 	addi	sp,sp,-28
 20004f0:	dc400115 	stw	r17,4(sp)
 20004f4:	2023883a 	mov	r17,r4
 20004f8:	2100010f 	ldh	r4,4(r4)
 20004fc:	dc800215 	stw	r18,8(sp)
 2000500:	2825883a 	mov	r18,r5
 2000504:	200b883a 	mov	r5,r4
 2000508:	dfc00615 	stw	ra,24(sp)
 200050c:	dcc00315 	stw	r19,12(sp)
 2000510:	dc000015 	stw	r16,0(sp)
 2000514:	dd400515 	stw	r21,20(sp)
 2000518:	dd000415 	stw	r20,16(sp)
 200051c:	200b0080 	call	200b008 <__mulsi3>
 2000520:	8900008f 	ldh	r4,2(r17)
 2000524:	1021883a 	mov	r16,r2
 2000528:	200b883a 	mov	r5,r4
 200052c:	200b0080 	call	200b008 <__mulsi3>
 2000530:	80a7883a 	add	r19,r16,r2
 2000534:	9800271e 	bne	r19,zero,20005d4 <get_orientation+0xe8>
 2000538:	00801684 	movi	r2,90
 200053c:	90800115 	stw	r2,4(r18)
 2000540:	80000b1e 	bne	r16,zero,2000570 <get_orientation+0x84>
 2000544:	00801684 	movi	r2,90
 2000548:	90800215 	stw	r2,8(r18)
 200054c:	dfc00617 	ldw	ra,24(sp)
 2000550:	dd400517 	ldw	r21,20(sp)
 2000554:	dd000417 	ldw	r20,16(sp)
 2000558:	dcc00317 	ldw	r19,12(sp)
 200055c:	dc800217 	ldw	r18,8(sp)
 2000560:	dc400117 	ldw	r17,4(sp)
 2000564:	dc000017 	ldw	r16,0(sp)
 2000568:	dec00704 	addi	sp,sp,28
 200056c:	f800283a 	ret
 2000570:	8900008f 	ldh	r4,2(r17)
 2000574:	200ac980 	call	200ac98 <__floatsidf>
 2000578:	8409883a 	add	r4,r16,r16
 200057c:	1027883a 	mov	r19,r2
 2000580:	1823883a 	mov	r17,r3
 2000584:	200ac980 	call	200ac98 <__floatsidf>
 2000588:	1009883a 	mov	r4,r2
 200058c:	180b883a 	mov	r5,r3
 2000590:	2007af00 	call	2007af0 <sqrt>
 2000594:	9809883a 	mov	r4,r19
 2000598:	880b883a 	mov	r5,r17
 200059c:	100d883a 	mov	r6,r2
 20005a0:	180f883a 	mov	r7,r3
 20005a4:	20074d40 	call	20074d4 <atan2>
 20005a8:	1009883a 	mov	r4,r2
 20005ac:	180b883a 	mov	r5,r3
 20005b0:	019999b4 	movhi	r6,26214
 20005b4:	31999984 	addi	r6,r6,26214
 20005b8:	01d01374 	movhi	r7,16461
 20005bc:	39e99984 	addi	r7,r7,-22938
 20005c0:	200a62c0 	call	200a62c <__muldf3>
 20005c4:	1009883a 	mov	r4,r2
 20005c8:	180b883a 	mov	r5,r3
 20005cc:	200ad6c0 	call	200ad6c <__fixdfsi>
 20005d0:	003fdd06 	br	2000548 <get_orientation+0x5c>
 20005d4:	8900000f 	ldh	r4,0(r17)
 20005d8:	200ac980 	call	200ac98 <__floatsidf>
 20005dc:	9809883a 	mov	r4,r19
 20005e0:	102b883a 	mov	r21,r2
 20005e4:	1829883a 	mov	r20,r3
 20005e8:	200ac980 	call	200ac98 <__floatsidf>
 20005ec:	1009883a 	mov	r4,r2
 20005f0:	180b883a 	mov	r5,r3
 20005f4:	2007af00 	call	2007af0 <sqrt>
 20005f8:	a809883a 	mov	r4,r21
 20005fc:	a00b883a 	mov	r5,r20
 2000600:	100d883a 	mov	r6,r2
 2000604:	180f883a 	mov	r7,r3
 2000608:	20074d40 	call	20074d4 <atan2>
 200060c:	1009883a 	mov	r4,r2
 2000610:	180b883a 	mov	r5,r3
 2000614:	019999b4 	movhi	r6,26214
 2000618:	31999984 	addi	r6,r6,26214
 200061c:	01d01374 	movhi	r7,16461
 2000620:	39e99984 	addi	r7,r7,-22938
 2000624:	200a62c0 	call	200a62c <__muldf3>
 2000628:	1009883a 	mov	r4,r2
 200062c:	180b883a 	mov	r5,r3
 2000630:	200ad6c0 	call	200ad6c <__fixdfsi>
 2000634:	003fc106 	br	200053c <get_orientation+0x50>

02000638 <set_pid_constants>:
 2000638:	defff604 	addi	sp,sp,-40
 200063c:	dc000015 	stw	r16,0(sp)
 2000640:	dc000e17 	ldw	r16,56(sp)
 2000644:	dd000415 	stw	r20,16(sp)
 2000648:	dcc00315 	stw	r19,12(sp)
 200064c:	dc800215 	stw	r18,8(sp)
 2000650:	dc400115 	stw	r17,4(sp)
 2000654:	dd000a17 	ldw	r20,40(sp)
 2000658:	dcc00b17 	ldw	r19,44(sp)
 200065c:	dc800c17 	ldw	r18,48(sp)
 2000660:	dc400d17 	ldw	r17,52(sp)
 2000664:	dd400515 	stw	r21,20(sp)
 2000668:	202b883a 	mov	r21,r4
 200066c:	8009883a 	mov	r4,r16
 2000670:	df000815 	stw	fp,32(sp)
 2000674:	ddc00715 	stw	r23,28(sp)
 2000678:	dd800615 	stw	r22,24(sp)
 200067c:	302f883a 	mov	r23,r6
 2000680:	282d883a 	mov	r22,r5
 2000684:	3839883a 	mov	fp,r7
 2000688:	dfc00915 	stw	ra,36(sp)
 200068c:	2005ba40 	call	2005ba4 <PID_Reset>
 2000690:	85400615 	stw	r21,24(r16)
 2000694:	85800715 	stw	r22,28(r16)
 2000698:	85c00815 	stw	r23,32(r16)
 200069c:	87000915 	stw	fp,36(r16)
 20006a0:	85000a15 	stw	r20,40(r16)
 20006a4:	84c00b15 	stw	r19,44(r16)
 20006a8:	84800c15 	stw	r18,48(r16)
 20006ac:	84400d15 	stw	r17,52(r16)
 20006b0:	dfc00917 	ldw	ra,36(sp)
 20006b4:	df000817 	ldw	fp,32(sp)
 20006b8:	ddc00717 	ldw	r23,28(sp)
 20006bc:	dd800617 	ldw	r22,24(sp)
 20006c0:	dd400517 	ldw	r21,20(sp)
 20006c4:	dd000417 	ldw	r20,16(sp)
 20006c8:	dcc00317 	ldw	r19,12(sp)
 20006cc:	dc800217 	ldw	r18,8(sp)
 20006d0:	dc400117 	ldw	r17,4(sp)
 20006d4:	dc000017 	ldw	r16,0(sp)
 20006d8:	dec00a04 	addi	sp,sp,40
 20006dc:	f800283a 	ret

020006e0 <pid_init>:
 20006e0:	defffc04 	addi	sp,sp,-16
 20006e4:	dc000015 	stw	r16,0(sp)
 20006e8:	040080b4 	movhi	r16,514
 20006ec:	84090b04 	addi	r16,r16,9260
 20006f0:	8009883a 	mov	r4,r16
 20006f4:	dfc00315 	stw	ra,12(sp)
 20006f8:	dc800215 	stw	r18,8(sp)
 20006fc:	dc400115 	stw	r17,4(sp)
 2000700:	2005ba40 	call	2005ba4 <PID_Reset>
 2000704:	048080b4 	movhi	r18,514
 2000708:	94892004 	addi	r18,r18,9344
 200070c:	00900e34 	movhi	r2,16440
 2000710:	9009883a 	mov	r4,r18
 2000714:	80800715 	stw	r2,28(r16)
 2000718:	80000615 	stw	zero,24(r16)
 200071c:	80000815 	stw	zero,32(r16)
 2000720:	80000915 	stw	zero,36(r16)
 2000724:	80000a15 	stw	zero,40(r16)
 2000728:	80000b15 	stw	zero,44(r16)
 200072c:	80000c15 	stw	zero,48(r16)
 2000730:	80000d15 	stw	zero,52(r16)
 2000734:	2005ba40 	call	2005ba4 <PID_Reset>
 2000738:	044080b4 	movhi	r17,514
 200073c:	8c493504 	addi	r17,r17,9428
 2000740:	8809883a 	mov	r4,r17
 2000744:	00900cb4 	movhi	r2,16434
 2000748:	040080b4 	movhi	r16,514
 200074c:	84094a04 	addi	r16,r16,9512
 2000750:	90800715 	stw	r2,28(r18)
 2000754:	90000615 	stw	zero,24(r18)
 2000758:	90000815 	stw	zero,32(r18)
 200075c:	90000915 	stw	zero,36(r18)
 2000760:	90000a15 	stw	zero,40(r18)
 2000764:	90000b15 	stw	zero,44(r18)
 2000768:	90000c15 	stw	zero,48(r18)
 200076c:	90000d15 	stw	zero,52(r18)
 2000770:	2005ba40 	call	2005ba4 <PID_Reset>
 2000774:	00900a34 	movhi	r2,16424
 2000778:	8009883a 	mov	r4,r16
 200077c:	88800715 	stw	r2,28(r17)
 2000780:	88000615 	stw	zero,24(r17)
 2000784:	88000815 	stw	zero,32(r17)
 2000788:	88000915 	stw	zero,36(r17)
 200078c:	88000a15 	stw	zero,40(r17)
 2000790:	88000b15 	stw	zero,44(r17)
 2000794:	88000c15 	stw	zero,48(r17)
 2000798:	88000d15 	stw	zero,52(r17)
 200079c:	2005ba40 	call	2005ba4 <PID_Reset>
 20007a0:	00d00934 	movhi	r3,16420
 20007a4:	80c00715 	stw	r3,28(r16)
 20007a8:	00cffc34 	movhi	r3,16368
 20007ac:	008080b4 	movhi	r2,514
 20007b0:	10890604 	addi	r2,r2,9240
 20007b4:	80000615 	stw	zero,24(r16)
 20007b8:	80000815 	stw	zero,32(r16)
 20007bc:	80000915 	stw	zero,36(r16)
 20007c0:	80000a15 	stw	zero,40(r16)
 20007c4:	80c00b15 	stw	r3,44(r16)
 20007c8:	80000c15 	stw	zero,48(r16)
 20007cc:	80000d15 	stw	zero,52(r16)
 20007d0:	10000415 	stw	zero,16(r2)
 20007d4:	10000315 	stw	zero,12(r2)
 20007d8:	10000015 	stw	zero,0(r2)
 20007dc:	dfc00317 	ldw	ra,12(sp)
 20007e0:	dc800217 	ldw	r18,8(sp)
 20007e4:	dc400117 	ldw	r17,4(sp)
 20007e8:	dc000017 	ldw	r16,0(sp)
 20007ec:	dec00404 	addi	sp,sp,16
 20007f0:	2005fc81 	jmpi	2005fc8 <init_lookup>

020007f4 <set_pid_constants_pitch>:
 20007f4:	defff604 	addi	sp,sp,-40
 20007f8:	dd000415 	stw	r20,16(sp)
 20007fc:	dcc00315 	stw	r19,12(sp)
 2000800:	dc800215 	stw	r18,8(sp)
 2000804:	dc400115 	stw	r17,4(sp)
 2000808:	dc000015 	stw	r16,0(sp)
 200080c:	dd000a17 	ldw	r20,40(sp)
 2000810:	040080b4 	movhi	r16,514
 2000814:	84090b04 	addi	r16,r16,9260
 2000818:	dcc00b17 	ldw	r19,44(sp)
 200081c:	dc800c17 	ldw	r18,48(sp)
 2000820:	dc400d17 	ldw	r17,52(sp)
 2000824:	dd400515 	stw	r21,20(sp)
 2000828:	202b883a 	mov	r21,r4
 200082c:	8009883a 	mov	r4,r16
 2000830:	df000815 	stw	fp,32(sp)
 2000834:	ddc00715 	stw	r23,28(sp)
 2000838:	dd800615 	stw	r22,24(sp)
 200083c:	302f883a 	mov	r23,r6
 2000840:	282d883a 	mov	r22,r5
 2000844:	3839883a 	mov	fp,r7
 2000848:	dfc00915 	stw	ra,36(sp)
 200084c:	2005ba40 	call	2005ba4 <PID_Reset>
 2000850:	85400615 	stw	r21,24(r16)
 2000854:	85800715 	stw	r22,28(r16)
 2000858:	85c00815 	stw	r23,32(r16)
 200085c:	87000915 	stw	fp,36(r16)
 2000860:	85000a15 	stw	r20,40(r16)
 2000864:	84c00b15 	stw	r19,44(r16)
 2000868:	84800c15 	stw	r18,48(r16)
 200086c:	84400d15 	stw	r17,52(r16)
 2000870:	dfc00917 	ldw	ra,36(sp)
 2000874:	df000817 	ldw	fp,32(sp)
 2000878:	ddc00717 	ldw	r23,28(sp)
 200087c:	dd800617 	ldw	r22,24(sp)
 2000880:	dd400517 	ldw	r21,20(sp)
 2000884:	dd000417 	ldw	r20,16(sp)
 2000888:	dcc00317 	ldw	r19,12(sp)
 200088c:	dc800217 	ldw	r18,8(sp)
 2000890:	dc400117 	ldw	r17,4(sp)
 2000894:	dc000017 	ldw	r16,0(sp)
 2000898:	dec00a04 	addi	sp,sp,40
 200089c:	f800283a 	ret

020008a0 <set_pid_constants_roll>:
 20008a0:	defff604 	addi	sp,sp,-40
 20008a4:	dd000415 	stw	r20,16(sp)
 20008a8:	dcc00315 	stw	r19,12(sp)
 20008ac:	dc800215 	stw	r18,8(sp)
 20008b0:	dc400115 	stw	r17,4(sp)
 20008b4:	dc000015 	stw	r16,0(sp)
 20008b8:	dd000a17 	ldw	r20,40(sp)
 20008bc:	040080b4 	movhi	r16,514
 20008c0:	84092004 	addi	r16,r16,9344
 20008c4:	dcc00b17 	ldw	r19,44(sp)
 20008c8:	dc800c17 	ldw	r18,48(sp)
 20008cc:	dc400d17 	ldw	r17,52(sp)
 20008d0:	dd400515 	stw	r21,20(sp)
 20008d4:	202b883a 	mov	r21,r4
 20008d8:	8009883a 	mov	r4,r16
 20008dc:	df000815 	stw	fp,32(sp)
 20008e0:	ddc00715 	stw	r23,28(sp)
 20008e4:	dd800615 	stw	r22,24(sp)
 20008e8:	302f883a 	mov	r23,r6
 20008ec:	282d883a 	mov	r22,r5
 20008f0:	3839883a 	mov	fp,r7
 20008f4:	dfc00915 	stw	ra,36(sp)
 20008f8:	2005ba40 	call	2005ba4 <PID_Reset>
 20008fc:	85400615 	stw	r21,24(r16)
 2000900:	85800715 	stw	r22,28(r16)
 2000904:	85c00815 	stw	r23,32(r16)
 2000908:	87000915 	stw	fp,36(r16)
 200090c:	85000a15 	stw	r20,40(r16)
 2000910:	84c00b15 	stw	r19,44(r16)
 2000914:	84800c15 	stw	r18,48(r16)
 2000918:	84400d15 	stw	r17,52(r16)
 200091c:	dfc00917 	ldw	ra,36(sp)
 2000920:	df000817 	ldw	fp,32(sp)
 2000924:	ddc00717 	ldw	r23,28(sp)
 2000928:	dd800617 	ldw	r22,24(sp)
 200092c:	dd400517 	ldw	r21,20(sp)
 2000930:	dd000417 	ldw	r20,16(sp)
 2000934:	dcc00317 	ldw	r19,12(sp)
 2000938:	dc800217 	ldw	r18,8(sp)
 200093c:	dc400117 	ldw	r17,4(sp)
 2000940:	dc000017 	ldw	r16,0(sp)
 2000944:	dec00a04 	addi	sp,sp,40
 2000948:	f800283a 	ret

0200094c <set_pid_constants_yaw>:
 200094c:	defff604 	addi	sp,sp,-40
 2000950:	dd000415 	stw	r20,16(sp)
 2000954:	dcc00315 	stw	r19,12(sp)
 2000958:	dc800215 	stw	r18,8(sp)
 200095c:	dc400115 	stw	r17,4(sp)
 2000960:	dc000015 	stw	r16,0(sp)
 2000964:	dd000a17 	ldw	r20,40(sp)
 2000968:	040080b4 	movhi	r16,514
 200096c:	84093504 	addi	r16,r16,9428
 2000970:	dcc00b17 	ldw	r19,44(sp)
 2000974:	dc800c17 	ldw	r18,48(sp)
 2000978:	dc400d17 	ldw	r17,52(sp)
 200097c:	dd400515 	stw	r21,20(sp)
 2000980:	202b883a 	mov	r21,r4
 2000984:	8009883a 	mov	r4,r16
 2000988:	df000815 	stw	fp,32(sp)
 200098c:	ddc00715 	stw	r23,28(sp)
 2000990:	dd800615 	stw	r22,24(sp)
 2000994:	302f883a 	mov	r23,r6
 2000998:	282d883a 	mov	r22,r5
 200099c:	3839883a 	mov	fp,r7
 20009a0:	dfc00915 	stw	ra,36(sp)
 20009a4:	2005ba40 	call	2005ba4 <PID_Reset>
 20009a8:	85400615 	stw	r21,24(r16)
 20009ac:	85800715 	stw	r22,28(r16)
 20009b0:	85c00815 	stw	r23,32(r16)
 20009b4:	87000915 	stw	fp,36(r16)
 20009b8:	85000a15 	stw	r20,40(r16)
 20009bc:	84c00b15 	stw	r19,44(r16)
 20009c0:	84800c15 	stw	r18,48(r16)
 20009c4:	84400d15 	stw	r17,52(r16)
 20009c8:	dfc00917 	ldw	ra,36(sp)
 20009cc:	df000817 	ldw	fp,32(sp)
 20009d0:	ddc00717 	ldw	r23,28(sp)
 20009d4:	dd800617 	ldw	r22,24(sp)
 20009d8:	dd400517 	ldw	r21,20(sp)
 20009dc:	dd000417 	ldw	r20,16(sp)
 20009e0:	dcc00317 	ldw	r19,12(sp)
 20009e4:	dc800217 	ldw	r18,8(sp)
 20009e8:	dc400117 	ldw	r17,4(sp)
 20009ec:	dc000017 	ldw	r16,0(sp)
 20009f0:	dec00a04 	addi	sp,sp,40
 20009f4:	f800283a 	ret

020009f8 <set_pid_constants_depth>:
 20009f8:	defff604 	addi	sp,sp,-40
 20009fc:	dd000415 	stw	r20,16(sp)
 2000a00:	dcc00315 	stw	r19,12(sp)
 2000a04:	dc800215 	stw	r18,8(sp)
 2000a08:	dc400115 	stw	r17,4(sp)
 2000a0c:	dc000015 	stw	r16,0(sp)
 2000a10:	dd000a17 	ldw	r20,40(sp)
 2000a14:	040080b4 	movhi	r16,514
 2000a18:	84094a04 	addi	r16,r16,9512
 2000a1c:	dcc00b17 	ldw	r19,44(sp)
 2000a20:	dc800c17 	ldw	r18,48(sp)
 2000a24:	dc400d17 	ldw	r17,52(sp)
 2000a28:	dd400515 	stw	r21,20(sp)
 2000a2c:	202b883a 	mov	r21,r4
 2000a30:	8009883a 	mov	r4,r16
 2000a34:	df000815 	stw	fp,32(sp)
 2000a38:	ddc00715 	stw	r23,28(sp)
 2000a3c:	dd800615 	stw	r22,24(sp)
 2000a40:	302f883a 	mov	r23,r6
 2000a44:	282d883a 	mov	r22,r5
 2000a48:	3839883a 	mov	fp,r7
 2000a4c:	dfc00915 	stw	ra,36(sp)
 2000a50:	2005ba40 	call	2005ba4 <PID_Reset>
 2000a54:	85400615 	stw	r21,24(r16)
 2000a58:	85800715 	stw	r22,28(r16)
 2000a5c:	85c00815 	stw	r23,32(r16)
 2000a60:	87000915 	stw	fp,36(r16)
 2000a64:	85000a15 	stw	r20,40(r16)
 2000a68:	84c00b15 	stw	r19,44(r16)
 2000a6c:	84800c15 	stw	r18,48(r16)
 2000a70:	84400d15 	stw	r17,52(r16)
 2000a74:	dfc00917 	ldw	ra,36(sp)
 2000a78:	df000817 	ldw	fp,32(sp)
 2000a7c:	ddc00717 	ldw	r23,28(sp)
 2000a80:	dd800617 	ldw	r22,24(sp)
 2000a84:	dd400517 	ldw	r21,20(sp)
 2000a88:	dd000417 	ldw	r20,16(sp)
 2000a8c:	dcc00317 	ldw	r19,12(sp)
 2000a90:	dc800217 	ldw	r18,8(sp)
 2000a94:	dc400117 	ldw	r17,4(sp)
 2000a98:	dc000017 	ldw	r16,0(sp)
 2000a9c:	dec00a04 	addi	sp,sp,40
 2000aa0:	f800283a 	ret

02000aa4 <motor_force_to_pwm>:
 2000aa4:	deffff04 	addi	sp,sp,-4
 2000aa8:	0191ebb4 	movhi	r6,18350
 2000aac:	31851ec4 	addi	r6,r6,5243
 2000ab0:	01cfdd34 	movhi	r7,16244
 2000ab4:	39deb844 	addi	r7,r7,31457
 2000ab8:	dfc00015 	stw	ra,0(sp)
 2000abc:	200a62c0 	call	200a62c <__muldf3>
 2000ac0:	180b883a 	mov	r5,r3
 2000ac4:	1009883a 	mov	r4,r2
 2000ac8:	20062000 	call	2006200 <pwm_of_force>
 2000acc:	11008004 	addi	r4,r2,512
 2000ad0:	200ac980 	call	200ac98 <__floatsidf>
 2000ad4:	dfc00017 	ldw	ra,0(sp)
 2000ad8:	dec00104 	addi	sp,sp,4
 2000adc:	f800283a 	ret

02000ae0 <stabilizing_motors_force_to_pwm>:
 2000ae0:	defff204 	addi	sp,sp,-56
 2000ae4:	dd000815 	stw	r20,32(sp)
 2000ae8:	dcc00715 	stw	r19,28(sp)
 2000aec:	3029883a 	mov	r20,r6
 2000af0:	3827883a 	mov	r19,r7
 2000af4:	0191ebb4 	movhi	r6,18350
 2000af8:	31851ec4 	addi	r6,r6,5243
 2000afc:	01cfdd34 	movhi	r7,16244
 2000b00:	39deb844 	addi	r7,r7,31457
 2000b04:	dfc00d15 	stw	ra,52(sp)
 2000b08:	dd800a15 	stw	r22,40(sp)
 2000b0c:	dd400915 	stw	r21,36(sp)
 2000b10:	dc800615 	stw	r18,24(sp)
 2000b14:	dc400515 	stw	r17,20(sp)
 2000b18:	dc000415 	stw	r16,16(sp)
 2000b1c:	d9000015 	stw	r4,0(sp)
 2000b20:	d9400115 	stw	r5,4(sp)
 2000b24:	df000c15 	stw	fp,48(sp)
 2000b28:	ddc00b15 	stw	r23,44(sp)
 2000b2c:	200a62c0 	call	200a62c <__muldf3>
 2000b30:	180b883a 	mov	r5,r3
 2000b34:	1009883a 	mov	r4,r2
 2000b38:	dc001017 	ldw	r16,64(sp)
 2000b3c:	dc401117 	ldw	r17,68(sp)
 2000b40:	dd800e17 	ldw	r22,56(sp)
 2000b44:	dd400f17 	ldw	r21,60(sp)
 2000b48:	dc801217 	ldw	r18,72(sp)
 2000b4c:	20062000 	call	2006200 <pwm_of_force>
 2000b50:	11008004 	addi	r4,r2,512
 2000b54:	200ac980 	call	200ac98 <__floatsidf>
 2000b58:	0191ebb4 	movhi	r6,18350
 2000b5c:	31851ec4 	addi	r6,r6,5243
 2000b60:	01cfdd34 	movhi	r7,16244
 2000b64:	39deb844 	addi	r7,r7,31457
 2000b68:	a009883a 	mov	r4,r20
 2000b6c:	980b883a 	mov	r5,r19
 2000b70:	80800015 	stw	r2,0(r16)
 2000b74:	80c00115 	stw	r3,4(r16)
 2000b78:	200a62c0 	call	200a62c <__muldf3>
 2000b7c:	1009883a 	mov	r4,r2
 2000b80:	180b883a 	mov	r5,r3
 2000b84:	20062000 	call	2006200 <pwm_of_force>
 2000b88:	11008004 	addi	r4,r2,512
 2000b8c:	200ac980 	call	200ac98 <__floatsidf>
 2000b90:	88800015 	stw	r2,0(r17)
 2000b94:	88c00115 	stw	r3,4(r17)
 2000b98:	90000e26 	beq	r18,zero,2000bd4 <stabilizing_motors_force_to_pwm+0xf4>
 2000b9c:	0191ebb4 	movhi	r6,18350
 2000ba0:	31851ec4 	addi	r6,r6,5243
 2000ba4:	01cfdd34 	movhi	r7,16244
 2000ba8:	39deb844 	addi	r7,r7,31457
 2000bac:	b009883a 	mov	r4,r22
 2000bb0:	a80b883a 	mov	r5,r21
 2000bb4:	200a62c0 	call	200a62c <__muldf3>
 2000bb8:	1009883a 	mov	r4,r2
 2000bbc:	180b883a 	mov	r5,r3
 2000bc0:	20062000 	call	2006200 <pwm_of_force>
 2000bc4:	11008004 	addi	r4,r2,512
 2000bc8:	200ac980 	call	200ac98 <__floatsidf>
 2000bcc:	90800015 	stw	r2,0(r18)
 2000bd0:	90c00115 	stw	r3,4(r18)
 2000bd4:	87000017 	ldw	fp,0(r16)
 2000bd8:	85c00117 	ldw	r23,4(r16)
 2000bdc:	000d883a 	mov	r6,zero
 2000be0:	e009883a 	mov	r4,fp
 2000be4:	b80b883a 	mov	r5,r23
 2000be8:	000f883a 	mov	r7,zero
 2000bec:	200ab7c0 	call	200ab7c <__gtdf2>
 2000bf0:	0086680e 	bge	zero,r2,2002594 <stabilizing_motors_force_to_pwm+0x1ab4>
 2000bf4:	e009883a 	mov	r4,fp
 2000bf8:	b80b883a 	mov	r5,r23
 2000bfc:	01a666b4 	movhi	r6,39322
 2000c00:	31a66684 	addi	r6,r6,-26214
 2000c04:	01d022b4 	movhi	r7,16522
 2000c08:	39e66644 	addi	r7,r7,-26215
 2000c0c:	200ab7c0 	call	200ab7c <__gtdf2>
 2000c10:	00846e16 	blt	zero,r2,2001dcc <stabilizing_motors_force_to_pwm+0x12ec>
 2000c14:	8a000017 	ldw	r8,0(r17)
 2000c18:	88c00117 	ldw	r3,4(r17)
 2000c1c:	000d883a 	mov	r6,zero
 2000c20:	4009883a 	mov	r4,r8
 2000c24:	180b883a 	mov	r5,r3
 2000c28:	000f883a 	mov	r7,zero
 2000c2c:	d8c00315 	stw	r3,12(sp)
 2000c30:	da000215 	stw	r8,8(sp)
 2000c34:	200ab7c0 	call	200ab7c <__gtdf2>
 2000c38:	d8c00317 	ldw	r3,12(sp)
 2000c3c:	da000217 	ldw	r8,8(sp)
 2000c40:	0086680e 	bge	zero,r2,20025e4 <stabilizing_motors_force_to_pwm+0x1b04>
 2000c44:	4009883a 	mov	r4,r8
 2000c48:	180b883a 	mov	r5,r3
 2000c4c:	01a666b4 	movhi	r6,39322
 2000c50:	31a66684 	addi	r6,r6,-26214
 2000c54:	01d022b4 	movhi	r7,16522
 2000c58:	39e66644 	addi	r7,r7,-26215
 2000c5c:	200ab7c0 	call	200ab7c <__gtdf2>
 2000c60:	00845a16 	blt	zero,r2,2001dcc <stabilizing_motors_force_to_pwm+0x12ec>
 2000c64:	90068b26 	beq	r18,zero,2002694 <stabilizing_motors_force_to_pwm+0x1bb4>
 2000c68:	92000017 	ldw	r8,0(r18)
 2000c6c:	90c00117 	ldw	r3,4(r18)
 2000c70:	000d883a 	mov	r6,zero
 2000c74:	4009883a 	mov	r4,r8
 2000c78:	180b883a 	mov	r5,r3
 2000c7c:	000f883a 	mov	r7,zero
 2000c80:	d8c00315 	stw	r3,12(sp)
 2000c84:	da000215 	stw	r8,8(sp)
 2000c88:	200ab7c0 	call	200ab7c <__gtdf2>
 2000c8c:	d8c00317 	ldw	r3,12(sp)
 2000c90:	da000217 	ldw	r8,8(sp)
 2000c94:	00865d0e 	bge	zero,r2,200260c <stabilizing_motors_force_to_pwm+0x1b2c>
 2000c98:	4009883a 	mov	r4,r8
 2000c9c:	180b883a 	mov	r5,r3
 2000ca0:	01a666b4 	movhi	r6,39322
 2000ca4:	31a66684 	addi	r6,r6,-26214
 2000ca8:	01d022b4 	movhi	r7,16522
 2000cac:	39e66644 	addi	r7,r7,-26215
 2000cb0:	200ab7c0 	call	200ab7c <__gtdf2>
 2000cb4:	0086770e 	bge	zero,r2,2002694 <stabilizing_motors_force_to_pwm+0x1bb4>
 2000cb8:	d9000017 	ldw	r4,0(sp)
 2000cbc:	d9400117 	ldw	r5,4(sp)
 2000cc0:	018cccf4 	movhi	r6,13107
 2000cc4:	318cccc4 	addi	r6,r6,13107
 2000cc8:	01cffaf4 	movhi	r7,16363
 2000ccc:	39ccccc4 	addi	r7,r7,13107
 2000cd0:	200a62c0 	call	200a62c <__muldf3>
 2000cd4:	a009883a 	mov	r4,r20
 2000cd8:	980b883a 	mov	r5,r19
 2000cdc:	018cccf4 	movhi	r6,13107
 2000ce0:	318cccc4 	addi	r6,r6,13107
 2000ce4:	01cffaf4 	movhi	r7,16363
 2000ce8:	39ccccc4 	addi	r7,r7,13107
 2000cec:	1039883a 	mov	fp,r2
 2000cf0:	182f883a 	mov	r23,r3
 2000cf4:	200a62c0 	call	200a62c <__muldf3>
 2000cf8:	b009883a 	mov	r4,r22
 2000cfc:	a80b883a 	mov	r5,r21
 2000d00:	018cccf4 	movhi	r6,13107
 2000d04:	318cccc4 	addi	r6,r6,13107
 2000d08:	01cffaf4 	movhi	r7,16363
 2000d0c:	39ccccc4 	addi	r7,r7,13107
 2000d10:	1029883a 	mov	r20,r2
 2000d14:	1827883a 	mov	r19,r3
 2000d18:	200a62c0 	call	200a62c <__muldf3>
 2000d1c:	0191ebb4 	movhi	r6,18350
 2000d20:	31851ec4 	addi	r6,r6,5243
 2000d24:	01cfdd34 	movhi	r7,16244
 2000d28:	39deb844 	addi	r7,r7,31457
 2000d2c:	e009883a 	mov	r4,fp
 2000d30:	b80b883a 	mov	r5,r23
 2000d34:	102d883a 	mov	r22,r2
 2000d38:	182b883a 	mov	r21,r3
 2000d3c:	200a62c0 	call	200a62c <__muldf3>
 2000d40:	180b883a 	mov	r5,r3
 2000d44:	1009883a 	mov	r4,r2
 2000d48:	20062000 	call	2006200 <pwm_of_force>
 2000d4c:	11008004 	addi	r4,r2,512
 2000d50:	200ac980 	call	200ac98 <__floatsidf>
 2000d54:	0191ebb4 	movhi	r6,18350
 2000d58:	31851ec4 	addi	r6,r6,5243
 2000d5c:	01cfdd34 	movhi	r7,16244
 2000d60:	39deb844 	addi	r7,r7,31457
 2000d64:	a009883a 	mov	r4,r20
 2000d68:	980b883a 	mov	r5,r19
 2000d6c:	80800015 	stw	r2,0(r16)
 2000d70:	80c00115 	stw	r3,4(r16)
 2000d74:	200a62c0 	call	200a62c <__muldf3>
 2000d78:	1009883a 	mov	r4,r2
 2000d7c:	180b883a 	mov	r5,r3
 2000d80:	20062000 	call	2006200 <pwm_of_force>
 2000d84:	11008004 	addi	r4,r2,512
 2000d88:	200ac980 	call	200ac98 <__floatsidf>
 2000d8c:	88800015 	stw	r2,0(r17)
 2000d90:	88c00115 	stw	r3,4(r17)
 2000d94:	0191ebb4 	movhi	r6,18350
 2000d98:	31851ec4 	addi	r6,r6,5243
 2000d9c:	01cfdd34 	movhi	r7,16244
 2000da0:	39deb844 	addi	r7,r7,31457
 2000da4:	b009883a 	mov	r4,r22
 2000da8:	a80b883a 	mov	r5,r21
 2000dac:	200a62c0 	call	200a62c <__muldf3>
 2000db0:	1009883a 	mov	r4,r2
 2000db4:	180b883a 	mov	r5,r3
 2000db8:	20062000 	call	2006200 <pwm_of_force>
 2000dbc:	11008004 	addi	r4,r2,512
 2000dc0:	200ac980 	call	200ac98 <__floatsidf>
 2000dc4:	90800015 	stw	r2,0(r18)
 2000dc8:	90c00115 	stw	r3,4(r18)
 2000dcc:	82000017 	ldw	r8,0(r16)
 2000dd0:	80c00117 	ldw	r3,4(r16)
 2000dd4:	000d883a 	mov	r6,zero
 2000dd8:	4009883a 	mov	r4,r8
 2000ddc:	180b883a 	mov	r5,r3
 2000de0:	000f883a 	mov	r7,zero
 2000de4:	d8c00315 	stw	r3,12(sp)
 2000de8:	da000215 	stw	r8,8(sp)
 2000dec:	200ab7c0 	call	200ab7c <__gtdf2>
 2000df0:	d8c00317 	ldw	r3,12(sp)
 2000df4:	da000217 	ldw	r8,8(sp)
 2000df8:	0085e80e 	bge	zero,r2,200259c <stabilizing_motors_force_to_pwm+0x1abc>
 2000dfc:	4009883a 	mov	r4,r8
 2000e00:	180b883a 	mov	r5,r3
 2000e04:	01a666b4 	movhi	r6,39322
 2000e08:	31a66684 	addi	r6,r6,-26214
 2000e0c:	01d022b4 	movhi	r7,16522
 2000e10:	39e66644 	addi	r7,r7,-26215
 2000e14:	200ab7c0 	call	200ab7c <__gtdf2>
 2000e18:	00842516 	blt	zero,r2,2001eb0 <stabilizing_motors_force_to_pwm+0x13d0>
 2000e1c:	8a000017 	ldw	r8,0(r17)
 2000e20:	88c00117 	ldw	r3,4(r17)
 2000e24:	000d883a 	mov	r6,zero
 2000e28:	4009883a 	mov	r4,r8
 2000e2c:	180b883a 	mov	r5,r3
 2000e30:	000f883a 	mov	r7,zero
 2000e34:	d8c00315 	stw	r3,12(sp)
 2000e38:	da000215 	stw	r8,8(sp)
 2000e3c:	200ab7c0 	call	200ab7c <__gtdf2>
 2000e40:	d8c00317 	ldw	r3,12(sp)
 2000e44:	da000217 	ldw	r8,8(sp)
 2000e48:	0086020e 	bge	zero,r2,2002654 <stabilizing_motors_force_to_pwm+0x1b74>
 2000e4c:	4009883a 	mov	r4,r8
 2000e50:	180b883a 	mov	r5,r3
 2000e54:	01a666b4 	movhi	r6,39322
 2000e58:	31a66684 	addi	r6,r6,-26214
 2000e5c:	01d022b4 	movhi	r7,16522
 2000e60:	39e66644 	addi	r7,r7,-26215
 2000e64:	200ab7c0 	call	200ab7c <__gtdf2>
 2000e68:	00841116 	blt	zero,r2,2001eb0 <stabilizing_motors_force_to_pwm+0x13d0>
 2000e6c:	9003ca26 	beq	r18,zero,2001d98 <stabilizing_motors_force_to_pwm+0x12b8>
 2000e70:	92000017 	ldw	r8,0(r18)
 2000e74:	90c00117 	ldw	r3,4(r18)
 2000e78:	000d883a 	mov	r6,zero
 2000e7c:	4009883a 	mov	r4,r8
 2000e80:	180b883a 	mov	r5,r3
 2000e84:	000f883a 	mov	r7,zero
 2000e88:	d8c00315 	stw	r3,12(sp)
 2000e8c:	da000215 	stw	r8,8(sp)
 2000e90:	200ab7c0 	call	200ab7c <__gtdf2>
 2000e94:	d8c00317 	ldw	r3,12(sp)
 2000e98:	da000217 	ldw	r8,8(sp)
 2000e9c:	0085dd0e 	bge	zero,r2,2002614 <stabilizing_motors_force_to_pwm+0x1b34>
 2000ea0:	4009883a 	mov	r4,r8
 2000ea4:	180b883a 	mov	r5,r3
 2000ea8:	01a666b4 	movhi	r6,39322
 2000eac:	31a66684 	addi	r6,r6,-26214
 2000eb0:	01d022b4 	movhi	r7,16522
 2000eb4:	39e66644 	addi	r7,r7,-26215
 2000eb8:	200ab7c0 	call	200ab7c <__gtdf2>
 2000ebc:	0083b60e 	bge	zero,r2,2001d98 <stabilizing_motors_force_to_pwm+0x12b8>
 2000ec0:	e009883a 	mov	r4,fp
 2000ec4:	b80b883a 	mov	r5,r23
 2000ec8:	018cccf4 	movhi	r6,13107
 2000ecc:	318cccc4 	addi	r6,r6,13107
 2000ed0:	01cffaf4 	movhi	r7,16363
 2000ed4:	39ccccc4 	addi	r7,r7,13107
 2000ed8:	200a62c0 	call	200a62c <__muldf3>
 2000edc:	a009883a 	mov	r4,r20
 2000ee0:	980b883a 	mov	r5,r19
 2000ee4:	018cccf4 	movhi	r6,13107
 2000ee8:	318cccc4 	addi	r6,r6,13107
 2000eec:	01cffaf4 	movhi	r7,16363
 2000ef0:	39ccccc4 	addi	r7,r7,13107
 2000ef4:	1039883a 	mov	fp,r2
 2000ef8:	182f883a 	mov	r23,r3
 2000efc:	200a62c0 	call	200a62c <__muldf3>
 2000f00:	b009883a 	mov	r4,r22
 2000f04:	a80b883a 	mov	r5,r21
 2000f08:	018cccf4 	movhi	r6,13107
 2000f0c:	318cccc4 	addi	r6,r6,13107
 2000f10:	01cffaf4 	movhi	r7,16363
 2000f14:	39ccccc4 	addi	r7,r7,13107
 2000f18:	1029883a 	mov	r20,r2
 2000f1c:	1827883a 	mov	r19,r3
 2000f20:	200a62c0 	call	200a62c <__muldf3>
 2000f24:	0191ebb4 	movhi	r6,18350
 2000f28:	31851ec4 	addi	r6,r6,5243
 2000f2c:	01cfdd34 	movhi	r7,16244
 2000f30:	39deb844 	addi	r7,r7,31457
 2000f34:	e009883a 	mov	r4,fp
 2000f38:	b80b883a 	mov	r5,r23
 2000f3c:	102d883a 	mov	r22,r2
 2000f40:	182b883a 	mov	r21,r3
 2000f44:	200a62c0 	call	200a62c <__muldf3>
 2000f48:	180b883a 	mov	r5,r3
 2000f4c:	1009883a 	mov	r4,r2
 2000f50:	20062000 	call	2006200 <pwm_of_force>
 2000f54:	11008004 	addi	r4,r2,512
 2000f58:	200ac980 	call	200ac98 <__floatsidf>
 2000f5c:	0191ebb4 	movhi	r6,18350
 2000f60:	31851ec4 	addi	r6,r6,5243
 2000f64:	01cfdd34 	movhi	r7,16244
 2000f68:	39deb844 	addi	r7,r7,31457
 2000f6c:	a009883a 	mov	r4,r20
 2000f70:	980b883a 	mov	r5,r19
 2000f74:	80800015 	stw	r2,0(r16)
 2000f78:	80c00115 	stw	r3,4(r16)
 2000f7c:	200a62c0 	call	200a62c <__muldf3>
 2000f80:	1009883a 	mov	r4,r2
 2000f84:	180b883a 	mov	r5,r3
 2000f88:	20062000 	call	2006200 <pwm_of_force>
 2000f8c:	11008004 	addi	r4,r2,512
 2000f90:	200ac980 	call	200ac98 <__floatsidf>
 2000f94:	88800015 	stw	r2,0(r17)
 2000f98:	88c00115 	stw	r3,4(r17)
 2000f9c:	0191ebb4 	movhi	r6,18350
 2000fa0:	31851ec4 	addi	r6,r6,5243
 2000fa4:	01cfdd34 	movhi	r7,16244
 2000fa8:	39deb844 	addi	r7,r7,31457
 2000fac:	b009883a 	mov	r4,r22
 2000fb0:	a80b883a 	mov	r5,r21
 2000fb4:	200a62c0 	call	200a62c <__muldf3>
 2000fb8:	1009883a 	mov	r4,r2
 2000fbc:	180b883a 	mov	r5,r3
 2000fc0:	20062000 	call	2006200 <pwm_of_force>
 2000fc4:	11008004 	addi	r4,r2,512
 2000fc8:	200ac980 	call	200ac98 <__floatsidf>
 2000fcc:	90800015 	stw	r2,0(r18)
 2000fd0:	90c00115 	stw	r3,4(r18)
 2000fd4:	82000017 	ldw	r8,0(r16)
 2000fd8:	80c00117 	ldw	r3,4(r16)
 2000fdc:	000d883a 	mov	r6,zero
 2000fe0:	4009883a 	mov	r4,r8
 2000fe4:	180b883a 	mov	r5,r3
 2000fe8:	000f883a 	mov	r7,zero
 2000fec:	d8c00315 	stw	r3,12(sp)
 2000ff0:	da000215 	stw	r8,8(sp)
 2000ff4:	200ab7c0 	call	200ab7c <__gtdf2>
 2000ff8:	d8c00317 	ldw	r3,12(sp)
 2000ffc:	da000217 	ldw	r8,8(sp)
 2001000:	0085680e 	bge	zero,r2,20025a4 <stabilizing_motors_force_to_pwm+0x1ac4>
 2001004:	4009883a 	mov	r4,r8
 2001008:	180b883a 	mov	r5,r3
 200100c:	01a666b4 	movhi	r6,39322
 2001010:	31a66684 	addi	r6,r6,-26214
 2001014:	01d022b4 	movhi	r7,16522
 2001018:	39e66644 	addi	r7,r7,-26215
 200101c:	200ab7c0 	call	200ab7c <__gtdf2>
 2001020:	0083dc16 	blt	zero,r2,2001f94 <stabilizing_motors_force_to_pwm+0x14b4>
 2001024:	8a000017 	ldw	r8,0(r17)
 2001028:	88c00117 	ldw	r3,4(r17)
 200102c:	000d883a 	mov	r6,zero
 2001030:	4009883a 	mov	r4,r8
 2001034:	180b883a 	mov	r5,r3
 2001038:	000f883a 	mov	r7,zero
 200103c:	d8c00315 	stw	r3,12(sp)
 2001040:	da000215 	stw	r8,8(sp)
 2001044:	200ab7c0 	call	200ab7c <__gtdf2>
 2001048:	d8c00317 	ldw	r3,12(sp)
 200104c:	da000217 	ldw	r8,8(sp)
 2001050:	0085820e 	bge	zero,r2,200265c <stabilizing_motors_force_to_pwm+0x1b7c>
 2001054:	4009883a 	mov	r4,r8
 2001058:	180b883a 	mov	r5,r3
 200105c:	01a666b4 	movhi	r6,39322
 2001060:	31a66684 	addi	r6,r6,-26214
 2001064:	01d022b4 	movhi	r7,16522
 2001068:	39e66644 	addi	r7,r7,-26215
 200106c:	200ab7c0 	call	200ab7c <__gtdf2>
 2001070:	0083c816 	blt	zero,r2,2001f94 <stabilizing_motors_force_to_pwm+0x14b4>
 2001074:	90034826 	beq	r18,zero,2001d98 <stabilizing_motors_force_to_pwm+0x12b8>
 2001078:	92000017 	ldw	r8,0(r18)
 200107c:	90c00117 	ldw	r3,4(r18)
 2001080:	000d883a 	mov	r6,zero
 2001084:	4009883a 	mov	r4,r8
 2001088:	180b883a 	mov	r5,r3
 200108c:	000f883a 	mov	r7,zero
 2001090:	d8c00315 	stw	r3,12(sp)
 2001094:	da000215 	stw	r8,8(sp)
 2001098:	200ab7c0 	call	200ab7c <__gtdf2>
 200109c:	d8c00317 	ldw	r3,12(sp)
 20010a0:	da000217 	ldw	r8,8(sp)
 20010a4:	00855d0e 	bge	zero,r2,200261c <stabilizing_motors_force_to_pwm+0x1b3c>
 20010a8:	4009883a 	mov	r4,r8
 20010ac:	180b883a 	mov	r5,r3
 20010b0:	01a666b4 	movhi	r6,39322
 20010b4:	31a66684 	addi	r6,r6,-26214
 20010b8:	01d022b4 	movhi	r7,16522
 20010bc:	39e66644 	addi	r7,r7,-26215
 20010c0:	200ab7c0 	call	200ab7c <__gtdf2>
 20010c4:	0083340e 	bge	zero,r2,2001d98 <stabilizing_motors_force_to_pwm+0x12b8>
 20010c8:	e009883a 	mov	r4,fp
 20010cc:	b80b883a 	mov	r5,r23
 20010d0:	018cccf4 	movhi	r6,13107
 20010d4:	318cccc4 	addi	r6,r6,13107
 20010d8:	01cffaf4 	movhi	r7,16363
 20010dc:	39ccccc4 	addi	r7,r7,13107
 20010e0:	200a62c0 	call	200a62c <__muldf3>
 20010e4:	a009883a 	mov	r4,r20
 20010e8:	980b883a 	mov	r5,r19
 20010ec:	018cccf4 	movhi	r6,13107
 20010f0:	318cccc4 	addi	r6,r6,13107
 20010f4:	01cffaf4 	movhi	r7,16363
 20010f8:	39ccccc4 	addi	r7,r7,13107
 20010fc:	1039883a 	mov	fp,r2
 2001100:	182f883a 	mov	r23,r3
 2001104:	200a62c0 	call	200a62c <__muldf3>
 2001108:	b009883a 	mov	r4,r22
 200110c:	a80b883a 	mov	r5,r21
 2001110:	018cccf4 	movhi	r6,13107
 2001114:	318cccc4 	addi	r6,r6,13107
 2001118:	01cffaf4 	movhi	r7,16363
 200111c:	39ccccc4 	addi	r7,r7,13107
 2001120:	1029883a 	mov	r20,r2
 2001124:	1827883a 	mov	r19,r3
 2001128:	200a62c0 	call	200a62c <__muldf3>
 200112c:	0191ebb4 	movhi	r6,18350
 2001130:	31851ec4 	addi	r6,r6,5243
 2001134:	01cfdd34 	movhi	r7,16244
 2001138:	39deb844 	addi	r7,r7,31457
 200113c:	e009883a 	mov	r4,fp
 2001140:	b80b883a 	mov	r5,r23
 2001144:	102d883a 	mov	r22,r2
 2001148:	182b883a 	mov	r21,r3
 200114c:	200a62c0 	call	200a62c <__muldf3>
 2001150:	180b883a 	mov	r5,r3
 2001154:	1009883a 	mov	r4,r2
 2001158:	20062000 	call	2006200 <pwm_of_force>
 200115c:	11008004 	addi	r4,r2,512
 2001160:	200ac980 	call	200ac98 <__floatsidf>
 2001164:	0191ebb4 	movhi	r6,18350
 2001168:	31851ec4 	addi	r6,r6,5243
 200116c:	01cfdd34 	movhi	r7,16244
 2001170:	39deb844 	addi	r7,r7,31457
 2001174:	a009883a 	mov	r4,r20
 2001178:	980b883a 	mov	r5,r19
 200117c:	80800015 	stw	r2,0(r16)
 2001180:	80c00115 	stw	r3,4(r16)
 2001184:	200a62c0 	call	200a62c <__muldf3>
 2001188:	1009883a 	mov	r4,r2
 200118c:	180b883a 	mov	r5,r3
 2001190:	20062000 	call	2006200 <pwm_of_force>
 2001194:	11008004 	addi	r4,r2,512
 2001198:	200ac980 	call	200ac98 <__floatsidf>
 200119c:	88800015 	stw	r2,0(r17)
 20011a0:	88c00115 	stw	r3,4(r17)
 20011a4:	0191ebb4 	movhi	r6,18350
 20011a8:	31851ec4 	addi	r6,r6,5243
 20011ac:	01cfdd34 	movhi	r7,16244
 20011b0:	39deb844 	addi	r7,r7,31457
 20011b4:	b009883a 	mov	r4,r22
 20011b8:	a80b883a 	mov	r5,r21
 20011bc:	200a62c0 	call	200a62c <__muldf3>
 20011c0:	1009883a 	mov	r4,r2
 20011c4:	180b883a 	mov	r5,r3
 20011c8:	20062000 	call	2006200 <pwm_of_force>
 20011cc:	11008004 	addi	r4,r2,512
 20011d0:	200ac980 	call	200ac98 <__floatsidf>
 20011d4:	90800015 	stw	r2,0(r18)
 20011d8:	90c00115 	stw	r3,4(r18)
 20011dc:	82000017 	ldw	r8,0(r16)
 20011e0:	80c00117 	ldw	r3,4(r16)
 20011e4:	000d883a 	mov	r6,zero
 20011e8:	4009883a 	mov	r4,r8
 20011ec:	180b883a 	mov	r5,r3
 20011f0:	000f883a 	mov	r7,zero
 20011f4:	d8c00315 	stw	r3,12(sp)
 20011f8:	da000215 	stw	r8,8(sp)
 20011fc:	200ab7c0 	call	200ab7c <__gtdf2>
 2001200:	d8c00317 	ldw	r3,12(sp)
 2001204:	da000217 	ldw	r8,8(sp)
 2001208:	0084e80e 	bge	zero,r2,20025ac <stabilizing_motors_force_to_pwm+0x1acc>
 200120c:	4009883a 	mov	r4,r8
 2001210:	180b883a 	mov	r5,r3
 2001214:	01a666b4 	movhi	r6,39322
 2001218:	31a66684 	addi	r6,r6,-26214
 200121c:	01d022b4 	movhi	r7,16522
 2001220:	39e66644 	addi	r7,r7,-26215
 2001224:	200ab7c0 	call	200ab7c <__gtdf2>
 2001228:	00839316 	blt	zero,r2,2002078 <stabilizing_motors_force_to_pwm+0x1598>
 200122c:	8a000017 	ldw	r8,0(r17)
 2001230:	88c00117 	ldw	r3,4(r17)
 2001234:	000d883a 	mov	r6,zero
 2001238:	4009883a 	mov	r4,r8
 200123c:	180b883a 	mov	r5,r3
 2001240:	000f883a 	mov	r7,zero
 2001244:	d8c00315 	stw	r3,12(sp)
 2001248:	da000215 	stw	r8,8(sp)
 200124c:	200ab7c0 	call	200ab7c <__gtdf2>
 2001250:	d8c00317 	ldw	r3,12(sp)
 2001254:	da000217 	ldw	r8,8(sp)
 2001258:	0085020e 	bge	zero,r2,2002664 <stabilizing_motors_force_to_pwm+0x1b84>
 200125c:	4009883a 	mov	r4,r8
 2001260:	180b883a 	mov	r5,r3
 2001264:	01a666b4 	movhi	r6,39322
 2001268:	31a66684 	addi	r6,r6,-26214
 200126c:	01d022b4 	movhi	r7,16522
 2001270:	39e66644 	addi	r7,r7,-26215
 2001274:	200ab7c0 	call	200ab7c <__gtdf2>
 2001278:	00837f16 	blt	zero,r2,2002078 <stabilizing_motors_force_to_pwm+0x1598>
 200127c:	9002c626 	beq	r18,zero,2001d98 <stabilizing_motors_force_to_pwm+0x12b8>
 2001280:	92000017 	ldw	r8,0(r18)
 2001284:	90c00117 	ldw	r3,4(r18)
 2001288:	000d883a 	mov	r6,zero
 200128c:	4009883a 	mov	r4,r8
 2001290:	180b883a 	mov	r5,r3
 2001294:	000f883a 	mov	r7,zero
 2001298:	d8c00315 	stw	r3,12(sp)
 200129c:	da000215 	stw	r8,8(sp)
 20012a0:	200ab7c0 	call	200ab7c <__gtdf2>
 20012a4:	d8c00317 	ldw	r3,12(sp)
 20012a8:	da000217 	ldw	r8,8(sp)
 20012ac:	0084dd0e 	bge	zero,r2,2002624 <stabilizing_motors_force_to_pwm+0x1b44>
 20012b0:	4009883a 	mov	r4,r8
 20012b4:	180b883a 	mov	r5,r3
 20012b8:	01a666b4 	movhi	r6,39322
 20012bc:	31a66684 	addi	r6,r6,-26214
 20012c0:	01d022b4 	movhi	r7,16522
 20012c4:	39e66644 	addi	r7,r7,-26215
 20012c8:	200ab7c0 	call	200ab7c <__gtdf2>
 20012cc:	0082b20e 	bge	zero,r2,2001d98 <stabilizing_motors_force_to_pwm+0x12b8>
 20012d0:	e009883a 	mov	r4,fp
 20012d4:	b80b883a 	mov	r5,r23
 20012d8:	018cccf4 	movhi	r6,13107
 20012dc:	318cccc4 	addi	r6,r6,13107
 20012e0:	01cffaf4 	movhi	r7,16363
 20012e4:	39ccccc4 	addi	r7,r7,13107
 20012e8:	200a62c0 	call	200a62c <__muldf3>
 20012ec:	a009883a 	mov	r4,r20
 20012f0:	980b883a 	mov	r5,r19
 20012f4:	018cccf4 	movhi	r6,13107
 20012f8:	318cccc4 	addi	r6,r6,13107
 20012fc:	01cffaf4 	movhi	r7,16363
 2001300:	39ccccc4 	addi	r7,r7,13107
 2001304:	1039883a 	mov	fp,r2
 2001308:	182f883a 	mov	r23,r3
 200130c:	200a62c0 	call	200a62c <__muldf3>
 2001310:	b009883a 	mov	r4,r22
 2001314:	a80b883a 	mov	r5,r21
 2001318:	018cccf4 	movhi	r6,13107
 200131c:	318cccc4 	addi	r6,r6,13107
 2001320:	01cffaf4 	movhi	r7,16363
 2001324:	39ccccc4 	addi	r7,r7,13107
 2001328:	1029883a 	mov	r20,r2
 200132c:	1827883a 	mov	r19,r3
 2001330:	200a62c0 	call	200a62c <__muldf3>
 2001334:	0191ebb4 	movhi	r6,18350
 2001338:	31851ec4 	addi	r6,r6,5243
 200133c:	01cfdd34 	movhi	r7,16244
 2001340:	39deb844 	addi	r7,r7,31457
 2001344:	e009883a 	mov	r4,fp
 2001348:	b80b883a 	mov	r5,r23
 200134c:	102d883a 	mov	r22,r2
 2001350:	182b883a 	mov	r21,r3
 2001354:	200a62c0 	call	200a62c <__muldf3>
 2001358:	180b883a 	mov	r5,r3
 200135c:	1009883a 	mov	r4,r2
 2001360:	20062000 	call	2006200 <pwm_of_force>
 2001364:	11008004 	addi	r4,r2,512
 2001368:	200ac980 	call	200ac98 <__floatsidf>
 200136c:	0191ebb4 	movhi	r6,18350
 2001370:	31851ec4 	addi	r6,r6,5243
 2001374:	01cfdd34 	movhi	r7,16244
 2001378:	39deb844 	addi	r7,r7,31457
 200137c:	a009883a 	mov	r4,r20
 2001380:	980b883a 	mov	r5,r19
 2001384:	80800015 	stw	r2,0(r16)
 2001388:	80c00115 	stw	r3,4(r16)
 200138c:	200a62c0 	call	200a62c <__muldf3>
 2001390:	1009883a 	mov	r4,r2
 2001394:	180b883a 	mov	r5,r3
 2001398:	20062000 	call	2006200 <pwm_of_force>
 200139c:	11008004 	addi	r4,r2,512
 20013a0:	200ac980 	call	200ac98 <__floatsidf>
 20013a4:	88800015 	stw	r2,0(r17)
 20013a8:	88c00115 	stw	r3,4(r17)
 20013ac:	0191ebb4 	movhi	r6,18350
 20013b0:	31851ec4 	addi	r6,r6,5243
 20013b4:	01cfdd34 	movhi	r7,16244
 20013b8:	39deb844 	addi	r7,r7,31457
 20013bc:	b009883a 	mov	r4,r22
 20013c0:	a80b883a 	mov	r5,r21
 20013c4:	200a62c0 	call	200a62c <__muldf3>
 20013c8:	1009883a 	mov	r4,r2
 20013cc:	180b883a 	mov	r5,r3
 20013d0:	20062000 	call	2006200 <pwm_of_force>
 20013d4:	11008004 	addi	r4,r2,512
 20013d8:	200ac980 	call	200ac98 <__floatsidf>
 20013dc:	90800015 	stw	r2,0(r18)
 20013e0:	90c00115 	stw	r3,4(r18)
 20013e4:	82000017 	ldw	r8,0(r16)
 20013e8:	80c00117 	ldw	r3,4(r16)
 20013ec:	000d883a 	mov	r6,zero
 20013f0:	4009883a 	mov	r4,r8
 20013f4:	180b883a 	mov	r5,r3
 20013f8:	000f883a 	mov	r7,zero
 20013fc:	d8c00315 	stw	r3,12(sp)
 2001400:	da000215 	stw	r8,8(sp)
 2001404:	200ab7c0 	call	200ab7c <__gtdf2>
 2001408:	d8c00317 	ldw	r3,12(sp)
 200140c:	da000217 	ldw	r8,8(sp)
 2001410:	0084680e 	bge	zero,r2,20025b4 <stabilizing_motors_force_to_pwm+0x1ad4>
 2001414:	4009883a 	mov	r4,r8
 2001418:	180b883a 	mov	r5,r3
 200141c:	01a666b4 	movhi	r6,39322
 2001420:	31a66684 	addi	r6,r6,-26214
 2001424:	01d022b4 	movhi	r7,16522
 2001428:	39e66644 	addi	r7,r7,-26215
 200142c:	200ab7c0 	call	200ab7c <__gtdf2>
 2001430:	00834a16 	blt	zero,r2,200215c <stabilizing_motors_force_to_pwm+0x167c>
 2001434:	8a000017 	ldw	r8,0(r17)
 2001438:	88c00117 	ldw	r3,4(r17)
 200143c:	000d883a 	mov	r6,zero
 2001440:	4009883a 	mov	r4,r8
 2001444:	180b883a 	mov	r5,r3
 2001448:	000f883a 	mov	r7,zero
 200144c:	d8c00315 	stw	r3,12(sp)
 2001450:	da000215 	stw	r8,8(sp)
 2001454:	200ab7c0 	call	200ab7c <__gtdf2>
 2001458:	d8c00317 	ldw	r3,12(sp)
 200145c:	da000217 	ldw	r8,8(sp)
 2001460:	0084820e 	bge	zero,r2,200266c <stabilizing_motors_force_to_pwm+0x1b8c>
 2001464:	4009883a 	mov	r4,r8
 2001468:	180b883a 	mov	r5,r3
 200146c:	01a666b4 	movhi	r6,39322
 2001470:	31a66684 	addi	r6,r6,-26214
 2001474:	01d022b4 	movhi	r7,16522
 2001478:	39e66644 	addi	r7,r7,-26215
 200147c:	200ab7c0 	call	200ab7c <__gtdf2>
 2001480:	00833616 	blt	zero,r2,200215c <stabilizing_motors_force_to_pwm+0x167c>
 2001484:	90024426 	beq	r18,zero,2001d98 <stabilizing_motors_force_to_pwm+0x12b8>
 2001488:	92000017 	ldw	r8,0(r18)
 200148c:	90c00117 	ldw	r3,4(r18)
 2001490:	000d883a 	mov	r6,zero
 2001494:	4009883a 	mov	r4,r8
 2001498:	180b883a 	mov	r5,r3
 200149c:	000f883a 	mov	r7,zero
 20014a0:	d8c00315 	stw	r3,12(sp)
 20014a4:	da000215 	stw	r8,8(sp)
 20014a8:	200ab7c0 	call	200ab7c <__gtdf2>
 20014ac:	d8c00317 	ldw	r3,12(sp)
 20014b0:	da000217 	ldw	r8,8(sp)
 20014b4:	00845d0e 	bge	zero,r2,200262c <stabilizing_motors_force_to_pwm+0x1b4c>
 20014b8:	4009883a 	mov	r4,r8
 20014bc:	180b883a 	mov	r5,r3
 20014c0:	01a666b4 	movhi	r6,39322
 20014c4:	31a66684 	addi	r6,r6,-26214
 20014c8:	01d022b4 	movhi	r7,16522
 20014cc:	39e66644 	addi	r7,r7,-26215
 20014d0:	200ab7c0 	call	200ab7c <__gtdf2>
 20014d4:	0082300e 	bge	zero,r2,2001d98 <stabilizing_motors_force_to_pwm+0x12b8>
 20014d8:	e009883a 	mov	r4,fp
 20014dc:	b80b883a 	mov	r5,r23
 20014e0:	018cccf4 	movhi	r6,13107
 20014e4:	318cccc4 	addi	r6,r6,13107
 20014e8:	01cffaf4 	movhi	r7,16363
 20014ec:	39ccccc4 	addi	r7,r7,13107
 20014f0:	200a62c0 	call	200a62c <__muldf3>
 20014f4:	a009883a 	mov	r4,r20
 20014f8:	980b883a 	mov	r5,r19
 20014fc:	018cccf4 	movhi	r6,13107
 2001500:	318cccc4 	addi	r6,r6,13107
 2001504:	01cffaf4 	movhi	r7,16363
 2001508:	39ccccc4 	addi	r7,r7,13107
 200150c:	1039883a 	mov	fp,r2
 2001510:	182f883a 	mov	r23,r3
 2001514:	200a62c0 	call	200a62c <__muldf3>
 2001518:	b009883a 	mov	r4,r22
 200151c:	a80b883a 	mov	r5,r21
 2001520:	018cccf4 	movhi	r6,13107
 2001524:	318cccc4 	addi	r6,r6,13107
 2001528:	01cffaf4 	movhi	r7,16363
 200152c:	39ccccc4 	addi	r7,r7,13107
 2001530:	1029883a 	mov	r20,r2
 2001534:	1827883a 	mov	r19,r3
 2001538:	200a62c0 	call	200a62c <__muldf3>
 200153c:	0191ebb4 	movhi	r6,18350
 2001540:	31851ec4 	addi	r6,r6,5243
 2001544:	01cfdd34 	movhi	r7,16244
 2001548:	39deb844 	addi	r7,r7,31457
 200154c:	e009883a 	mov	r4,fp
 2001550:	b80b883a 	mov	r5,r23
 2001554:	102d883a 	mov	r22,r2
 2001558:	182b883a 	mov	r21,r3
 200155c:	200a62c0 	call	200a62c <__muldf3>
 2001560:	180b883a 	mov	r5,r3
 2001564:	1009883a 	mov	r4,r2
 2001568:	20062000 	call	2006200 <pwm_of_force>
 200156c:	11008004 	addi	r4,r2,512
 2001570:	200ac980 	call	200ac98 <__floatsidf>
 2001574:	0191ebb4 	movhi	r6,18350
 2001578:	31851ec4 	addi	r6,r6,5243
 200157c:	01cfdd34 	movhi	r7,16244
 2001580:	39deb844 	addi	r7,r7,31457
 2001584:	a009883a 	mov	r4,r20
 2001588:	980b883a 	mov	r5,r19
 200158c:	80800015 	stw	r2,0(r16)
 2001590:	80c00115 	stw	r3,4(r16)
 2001594:	200a62c0 	call	200a62c <__muldf3>
 2001598:	1009883a 	mov	r4,r2
 200159c:	180b883a 	mov	r5,r3
 20015a0:	20062000 	call	2006200 <pwm_of_force>
 20015a4:	11008004 	addi	r4,r2,512
 20015a8:	200ac980 	call	200ac98 <__floatsidf>
 20015ac:	88800015 	stw	r2,0(r17)
 20015b0:	88c00115 	stw	r3,4(r17)
 20015b4:	0191ebb4 	movhi	r6,18350
 20015b8:	31851ec4 	addi	r6,r6,5243
 20015bc:	01cfdd34 	movhi	r7,16244
 20015c0:	39deb844 	addi	r7,r7,31457
 20015c4:	b009883a 	mov	r4,r22
 20015c8:	a80b883a 	mov	r5,r21
 20015cc:	200a62c0 	call	200a62c <__muldf3>
 20015d0:	1009883a 	mov	r4,r2
 20015d4:	180b883a 	mov	r5,r3
 20015d8:	20062000 	call	2006200 <pwm_of_force>
 20015dc:	11008004 	addi	r4,r2,512
 20015e0:	200ac980 	call	200ac98 <__floatsidf>
 20015e4:	90800015 	stw	r2,0(r18)
 20015e8:	90c00115 	stw	r3,4(r18)
 20015ec:	82000017 	ldw	r8,0(r16)
 20015f0:	80c00117 	ldw	r3,4(r16)
 20015f4:	000d883a 	mov	r6,zero
 20015f8:	4009883a 	mov	r4,r8
 20015fc:	180b883a 	mov	r5,r3
 2001600:	000f883a 	mov	r7,zero
 2001604:	d8c00315 	stw	r3,12(sp)
 2001608:	da000215 	stw	r8,8(sp)
 200160c:	200ab7c0 	call	200ab7c <__gtdf2>
 2001610:	d8c00317 	ldw	r3,12(sp)
 2001614:	da000217 	ldw	r8,8(sp)
 2001618:	0083e80e 	bge	zero,r2,20025bc <stabilizing_motors_force_to_pwm+0x1adc>
 200161c:	4009883a 	mov	r4,r8
 2001620:	180b883a 	mov	r5,r3
 2001624:	01a666b4 	movhi	r6,39322
 2001628:	31a66684 	addi	r6,r6,-26214
 200162c:	01d022b4 	movhi	r7,16522
 2001630:	39e66644 	addi	r7,r7,-26215
 2001634:	200ab7c0 	call	200ab7c <__gtdf2>
 2001638:	00830116 	blt	zero,r2,2002240 <stabilizing_motors_force_to_pwm+0x1760>
 200163c:	8a000017 	ldw	r8,0(r17)
 2001640:	88c00117 	ldw	r3,4(r17)
 2001644:	000d883a 	mov	r6,zero
 2001648:	4009883a 	mov	r4,r8
 200164c:	180b883a 	mov	r5,r3
 2001650:	000f883a 	mov	r7,zero
 2001654:	d8c00315 	stw	r3,12(sp)
 2001658:	da000215 	stw	r8,8(sp)
 200165c:	200ab7c0 	call	200ab7c <__gtdf2>
 2001660:	d8c00317 	ldw	r3,12(sp)
 2001664:	da000217 	ldw	r8,8(sp)
 2001668:	0084020e 	bge	zero,r2,2002674 <stabilizing_motors_force_to_pwm+0x1b94>
 200166c:	4009883a 	mov	r4,r8
 2001670:	180b883a 	mov	r5,r3
 2001674:	01a666b4 	movhi	r6,39322
 2001678:	31a66684 	addi	r6,r6,-26214
 200167c:	01d022b4 	movhi	r7,16522
 2001680:	39e66644 	addi	r7,r7,-26215
 2001684:	200ab7c0 	call	200ab7c <__gtdf2>
 2001688:	0082ed16 	blt	zero,r2,2002240 <stabilizing_motors_force_to_pwm+0x1760>
 200168c:	9001c226 	beq	r18,zero,2001d98 <stabilizing_motors_force_to_pwm+0x12b8>
 2001690:	92000017 	ldw	r8,0(r18)
 2001694:	90c00117 	ldw	r3,4(r18)
 2001698:	000d883a 	mov	r6,zero
 200169c:	4009883a 	mov	r4,r8
 20016a0:	180b883a 	mov	r5,r3
 20016a4:	000f883a 	mov	r7,zero
 20016a8:	d8c00315 	stw	r3,12(sp)
 20016ac:	da000215 	stw	r8,8(sp)
 20016b0:	200ab7c0 	call	200ab7c <__gtdf2>
 20016b4:	d8c00317 	ldw	r3,12(sp)
 20016b8:	da000217 	ldw	r8,8(sp)
 20016bc:	0083dd0e 	bge	zero,r2,2002634 <stabilizing_motors_force_to_pwm+0x1b54>
 20016c0:	4009883a 	mov	r4,r8
 20016c4:	180b883a 	mov	r5,r3
 20016c8:	01a666b4 	movhi	r6,39322
 20016cc:	31a66684 	addi	r6,r6,-26214
 20016d0:	01d022b4 	movhi	r7,16522
 20016d4:	39e66644 	addi	r7,r7,-26215
 20016d8:	200ab7c0 	call	200ab7c <__gtdf2>
 20016dc:	0081ae0e 	bge	zero,r2,2001d98 <stabilizing_motors_force_to_pwm+0x12b8>
 20016e0:	e009883a 	mov	r4,fp
 20016e4:	b80b883a 	mov	r5,r23
 20016e8:	018cccf4 	movhi	r6,13107
 20016ec:	318cccc4 	addi	r6,r6,13107
 20016f0:	01cffaf4 	movhi	r7,16363
 20016f4:	39ccccc4 	addi	r7,r7,13107
 20016f8:	200a62c0 	call	200a62c <__muldf3>
 20016fc:	a009883a 	mov	r4,r20
 2001700:	980b883a 	mov	r5,r19
 2001704:	018cccf4 	movhi	r6,13107
 2001708:	318cccc4 	addi	r6,r6,13107
 200170c:	01cffaf4 	movhi	r7,16363
 2001710:	39ccccc4 	addi	r7,r7,13107
 2001714:	1039883a 	mov	fp,r2
 2001718:	182f883a 	mov	r23,r3
 200171c:	200a62c0 	call	200a62c <__muldf3>
 2001720:	b009883a 	mov	r4,r22
 2001724:	a80b883a 	mov	r5,r21
 2001728:	018cccf4 	movhi	r6,13107
 200172c:	318cccc4 	addi	r6,r6,13107
 2001730:	01cffaf4 	movhi	r7,16363
 2001734:	39ccccc4 	addi	r7,r7,13107
 2001738:	1029883a 	mov	r20,r2
 200173c:	1827883a 	mov	r19,r3
 2001740:	200a62c0 	call	200a62c <__muldf3>
 2001744:	0191ebb4 	movhi	r6,18350
 2001748:	31851ec4 	addi	r6,r6,5243
 200174c:	01cfdd34 	movhi	r7,16244
 2001750:	39deb844 	addi	r7,r7,31457
 2001754:	e009883a 	mov	r4,fp
 2001758:	b80b883a 	mov	r5,r23
 200175c:	102d883a 	mov	r22,r2
 2001760:	182b883a 	mov	r21,r3
 2001764:	200a62c0 	call	200a62c <__muldf3>
 2001768:	180b883a 	mov	r5,r3
 200176c:	1009883a 	mov	r4,r2
 2001770:	20062000 	call	2006200 <pwm_of_force>
 2001774:	11008004 	addi	r4,r2,512
 2001778:	200ac980 	call	200ac98 <__floatsidf>
 200177c:	0191ebb4 	movhi	r6,18350
 2001780:	31851ec4 	addi	r6,r6,5243
 2001784:	01cfdd34 	movhi	r7,16244
 2001788:	39deb844 	addi	r7,r7,31457
 200178c:	a009883a 	mov	r4,r20
 2001790:	980b883a 	mov	r5,r19
 2001794:	80800015 	stw	r2,0(r16)
 2001798:	80c00115 	stw	r3,4(r16)
 200179c:	200a62c0 	call	200a62c <__muldf3>
 20017a0:	1009883a 	mov	r4,r2
 20017a4:	180b883a 	mov	r5,r3
 20017a8:	20062000 	call	2006200 <pwm_of_force>
 20017ac:	11008004 	addi	r4,r2,512
 20017b0:	200ac980 	call	200ac98 <__floatsidf>
 20017b4:	88800015 	stw	r2,0(r17)
 20017b8:	88c00115 	stw	r3,4(r17)
 20017bc:	0191ebb4 	movhi	r6,18350
 20017c0:	31851ec4 	addi	r6,r6,5243
 20017c4:	01cfdd34 	movhi	r7,16244
 20017c8:	39deb844 	addi	r7,r7,31457
 20017cc:	b009883a 	mov	r4,r22
 20017d0:	a80b883a 	mov	r5,r21
 20017d4:	200a62c0 	call	200a62c <__muldf3>
 20017d8:	1009883a 	mov	r4,r2
 20017dc:	180b883a 	mov	r5,r3
 20017e0:	20062000 	call	2006200 <pwm_of_force>
 20017e4:	11008004 	addi	r4,r2,512
 20017e8:	200ac980 	call	200ac98 <__floatsidf>
 20017ec:	90800015 	stw	r2,0(r18)
 20017f0:	90c00115 	stw	r3,4(r18)
 20017f4:	82000017 	ldw	r8,0(r16)
 20017f8:	80c00117 	ldw	r3,4(r16)
 20017fc:	000d883a 	mov	r6,zero
 2001800:	4009883a 	mov	r4,r8
 2001804:	180b883a 	mov	r5,r3
 2001808:	000f883a 	mov	r7,zero
 200180c:	d8c00315 	stw	r3,12(sp)
 2001810:	da000215 	stw	r8,8(sp)
 2001814:	200ab7c0 	call	200ab7c <__gtdf2>
 2001818:	d8c00317 	ldw	r3,12(sp)
 200181c:	da000217 	ldw	r8,8(sp)
 2001820:	0083680e 	bge	zero,r2,20025c4 <stabilizing_motors_force_to_pwm+0x1ae4>
 2001824:	4009883a 	mov	r4,r8
 2001828:	180b883a 	mov	r5,r3
 200182c:	01a666b4 	movhi	r6,39322
 2001830:	31a66684 	addi	r6,r6,-26214
 2001834:	01d022b4 	movhi	r7,16522
 2001838:	39e66644 	addi	r7,r7,-26215
 200183c:	200ab7c0 	call	200ab7c <__gtdf2>
 2001840:	0082b816 	blt	zero,r2,2002324 <stabilizing_motors_force_to_pwm+0x1844>
 2001844:	8a000017 	ldw	r8,0(r17)
 2001848:	88c00117 	ldw	r3,4(r17)
 200184c:	000d883a 	mov	r6,zero
 2001850:	4009883a 	mov	r4,r8
 2001854:	180b883a 	mov	r5,r3
 2001858:	000f883a 	mov	r7,zero
 200185c:	d8c00315 	stw	r3,12(sp)
 2001860:	da000215 	stw	r8,8(sp)
 2001864:	200ab7c0 	call	200ab7c <__gtdf2>
 2001868:	d8c00317 	ldw	r3,12(sp)
 200186c:	da000217 	ldw	r8,8(sp)
 2001870:	0083820e 	bge	zero,r2,200267c <stabilizing_motors_force_to_pwm+0x1b9c>
 2001874:	4009883a 	mov	r4,r8
 2001878:	180b883a 	mov	r5,r3
 200187c:	01a666b4 	movhi	r6,39322
 2001880:	31a66684 	addi	r6,r6,-26214
 2001884:	01d022b4 	movhi	r7,16522
 2001888:	39e66644 	addi	r7,r7,-26215
 200188c:	200ab7c0 	call	200ab7c <__gtdf2>
 2001890:	0082a416 	blt	zero,r2,2002324 <stabilizing_motors_force_to_pwm+0x1844>
 2001894:	90014026 	beq	r18,zero,2001d98 <stabilizing_motors_force_to_pwm+0x12b8>
 2001898:	92000017 	ldw	r8,0(r18)
 200189c:	90c00117 	ldw	r3,4(r18)
 20018a0:	000d883a 	mov	r6,zero
 20018a4:	4009883a 	mov	r4,r8
 20018a8:	180b883a 	mov	r5,r3
 20018ac:	000f883a 	mov	r7,zero
 20018b0:	d8c00315 	stw	r3,12(sp)
 20018b4:	da000215 	stw	r8,8(sp)
 20018b8:	200ab7c0 	call	200ab7c <__gtdf2>
 20018bc:	d8c00317 	ldw	r3,12(sp)
 20018c0:	da000217 	ldw	r8,8(sp)
 20018c4:	00835d0e 	bge	zero,r2,200263c <stabilizing_motors_force_to_pwm+0x1b5c>
 20018c8:	4009883a 	mov	r4,r8
 20018cc:	180b883a 	mov	r5,r3
 20018d0:	01a666b4 	movhi	r6,39322
 20018d4:	31a66684 	addi	r6,r6,-26214
 20018d8:	01d022b4 	movhi	r7,16522
 20018dc:	39e66644 	addi	r7,r7,-26215
 20018e0:	200ab7c0 	call	200ab7c <__gtdf2>
 20018e4:	00812c0e 	bge	zero,r2,2001d98 <stabilizing_motors_force_to_pwm+0x12b8>
 20018e8:	e009883a 	mov	r4,fp
 20018ec:	b80b883a 	mov	r5,r23
 20018f0:	018cccf4 	movhi	r6,13107
 20018f4:	318cccc4 	addi	r6,r6,13107
 20018f8:	01cffaf4 	movhi	r7,16363
 20018fc:	39ccccc4 	addi	r7,r7,13107
 2001900:	200a62c0 	call	200a62c <__muldf3>
 2001904:	a009883a 	mov	r4,r20
 2001908:	980b883a 	mov	r5,r19
 200190c:	018cccf4 	movhi	r6,13107
 2001910:	318cccc4 	addi	r6,r6,13107
 2001914:	01cffaf4 	movhi	r7,16363
 2001918:	39ccccc4 	addi	r7,r7,13107
 200191c:	1039883a 	mov	fp,r2
 2001920:	182f883a 	mov	r23,r3
 2001924:	200a62c0 	call	200a62c <__muldf3>
 2001928:	b009883a 	mov	r4,r22
 200192c:	a80b883a 	mov	r5,r21
 2001930:	018cccf4 	movhi	r6,13107
 2001934:	318cccc4 	addi	r6,r6,13107
 2001938:	01cffaf4 	movhi	r7,16363
 200193c:	39ccccc4 	addi	r7,r7,13107
 2001940:	1029883a 	mov	r20,r2
 2001944:	1827883a 	mov	r19,r3
 2001948:	200a62c0 	call	200a62c <__muldf3>
 200194c:	0191ebb4 	movhi	r6,18350
 2001950:	31851ec4 	addi	r6,r6,5243
 2001954:	01cfdd34 	movhi	r7,16244
 2001958:	39deb844 	addi	r7,r7,31457
 200195c:	e009883a 	mov	r4,fp
 2001960:	b80b883a 	mov	r5,r23
 2001964:	102d883a 	mov	r22,r2
 2001968:	182b883a 	mov	r21,r3
 200196c:	200a62c0 	call	200a62c <__muldf3>
 2001970:	180b883a 	mov	r5,r3
 2001974:	1009883a 	mov	r4,r2
 2001978:	20062000 	call	2006200 <pwm_of_force>
 200197c:	11008004 	addi	r4,r2,512
 2001980:	200ac980 	call	200ac98 <__floatsidf>
 2001984:	0191ebb4 	movhi	r6,18350
 2001988:	31851ec4 	addi	r6,r6,5243
 200198c:	01cfdd34 	movhi	r7,16244
 2001990:	39deb844 	addi	r7,r7,31457
 2001994:	a009883a 	mov	r4,r20
 2001998:	980b883a 	mov	r5,r19
 200199c:	80800015 	stw	r2,0(r16)
 20019a0:	80c00115 	stw	r3,4(r16)
 20019a4:	200a62c0 	call	200a62c <__muldf3>
 20019a8:	1009883a 	mov	r4,r2
 20019ac:	180b883a 	mov	r5,r3
 20019b0:	20062000 	call	2006200 <pwm_of_force>
 20019b4:	11008004 	addi	r4,r2,512
 20019b8:	200ac980 	call	200ac98 <__floatsidf>
 20019bc:	88800015 	stw	r2,0(r17)
 20019c0:	88c00115 	stw	r3,4(r17)
 20019c4:	0191ebb4 	movhi	r6,18350
 20019c8:	31851ec4 	addi	r6,r6,5243
 20019cc:	01cfdd34 	movhi	r7,16244
 20019d0:	39deb844 	addi	r7,r7,31457
 20019d4:	b009883a 	mov	r4,r22
 20019d8:	a80b883a 	mov	r5,r21
 20019dc:	200a62c0 	call	200a62c <__muldf3>
 20019e0:	1009883a 	mov	r4,r2
 20019e4:	180b883a 	mov	r5,r3
 20019e8:	20062000 	call	2006200 <pwm_of_force>
 20019ec:	11008004 	addi	r4,r2,512
 20019f0:	200ac980 	call	200ac98 <__floatsidf>
 20019f4:	90800015 	stw	r2,0(r18)
 20019f8:	90c00115 	stw	r3,4(r18)
 20019fc:	82000017 	ldw	r8,0(r16)
 2001a00:	80c00117 	ldw	r3,4(r16)
 2001a04:	000d883a 	mov	r6,zero
 2001a08:	4009883a 	mov	r4,r8
 2001a0c:	180b883a 	mov	r5,r3
 2001a10:	000f883a 	mov	r7,zero
 2001a14:	d8c00315 	stw	r3,12(sp)
 2001a18:	da000215 	stw	r8,8(sp)
 2001a1c:	200ab7c0 	call	200ab7c <__gtdf2>
 2001a20:	d8c00317 	ldw	r3,12(sp)
 2001a24:	da000217 	ldw	r8,8(sp)
 2001a28:	0082e80e 	bge	zero,r2,20025cc <stabilizing_motors_force_to_pwm+0x1aec>
 2001a2c:	4009883a 	mov	r4,r8
 2001a30:	180b883a 	mov	r5,r3
 2001a34:	01a666b4 	movhi	r6,39322
 2001a38:	31a66684 	addi	r6,r6,-26214
 2001a3c:	01d022b4 	movhi	r7,16522
 2001a40:	39e66644 	addi	r7,r7,-26215
 2001a44:	200ab7c0 	call	200ab7c <__gtdf2>
 2001a48:	00826f16 	blt	zero,r2,2002408 <stabilizing_motors_force_to_pwm+0x1928>
 2001a4c:	8a000017 	ldw	r8,0(r17)
 2001a50:	88c00117 	ldw	r3,4(r17)
 2001a54:	000d883a 	mov	r6,zero
 2001a58:	4009883a 	mov	r4,r8
 2001a5c:	180b883a 	mov	r5,r3
 2001a60:	000f883a 	mov	r7,zero
 2001a64:	d8c00315 	stw	r3,12(sp)
 2001a68:	da000215 	stw	r8,8(sp)
 2001a6c:	200ab7c0 	call	200ab7c <__gtdf2>
 2001a70:	d8c00317 	ldw	r3,12(sp)
 2001a74:	da000217 	ldw	r8,8(sp)
 2001a78:	0083020e 	bge	zero,r2,2002684 <stabilizing_motors_force_to_pwm+0x1ba4>
 2001a7c:	4009883a 	mov	r4,r8
 2001a80:	180b883a 	mov	r5,r3
 2001a84:	01a666b4 	movhi	r6,39322
 2001a88:	31a66684 	addi	r6,r6,-26214
 2001a8c:	01d022b4 	movhi	r7,16522
 2001a90:	39e66644 	addi	r7,r7,-26215
 2001a94:	200ab7c0 	call	200ab7c <__gtdf2>
 2001a98:	00825b16 	blt	zero,r2,2002408 <stabilizing_motors_force_to_pwm+0x1928>
 2001a9c:	9000be26 	beq	r18,zero,2001d98 <stabilizing_motors_force_to_pwm+0x12b8>
 2001aa0:	92000017 	ldw	r8,0(r18)
 2001aa4:	90c00117 	ldw	r3,4(r18)
 2001aa8:	000d883a 	mov	r6,zero
 2001aac:	4009883a 	mov	r4,r8
 2001ab0:	180b883a 	mov	r5,r3
 2001ab4:	000f883a 	mov	r7,zero
 2001ab8:	d8c00315 	stw	r3,12(sp)
 2001abc:	da000215 	stw	r8,8(sp)
 2001ac0:	200ab7c0 	call	200ab7c <__gtdf2>
 2001ac4:	d8c00317 	ldw	r3,12(sp)
 2001ac8:	da000217 	ldw	r8,8(sp)
 2001acc:	0082df0e 	bge	zero,r2,200264c <stabilizing_motors_force_to_pwm+0x1b6c>
 2001ad0:	4009883a 	mov	r4,r8
 2001ad4:	180b883a 	mov	r5,r3
 2001ad8:	01a666b4 	movhi	r6,39322
 2001adc:	31a66684 	addi	r6,r6,-26214
 2001ae0:	01d022b4 	movhi	r7,16522
 2001ae4:	39e66644 	addi	r7,r7,-26215
 2001ae8:	200ab7c0 	call	200ab7c <__gtdf2>
 2001aec:	0080aa0e 	bge	zero,r2,2001d98 <stabilizing_motors_force_to_pwm+0x12b8>
 2001af0:	e009883a 	mov	r4,fp
 2001af4:	b80b883a 	mov	r5,r23
 2001af8:	018cccf4 	movhi	r6,13107
 2001afc:	318cccc4 	addi	r6,r6,13107
 2001b00:	01cffaf4 	movhi	r7,16363
 2001b04:	39ccccc4 	addi	r7,r7,13107
 2001b08:	200a62c0 	call	200a62c <__muldf3>
 2001b0c:	a009883a 	mov	r4,r20
 2001b10:	980b883a 	mov	r5,r19
 2001b14:	018cccf4 	movhi	r6,13107
 2001b18:	318cccc4 	addi	r6,r6,13107
 2001b1c:	01cffaf4 	movhi	r7,16363
 2001b20:	39ccccc4 	addi	r7,r7,13107
 2001b24:	1039883a 	mov	fp,r2
 2001b28:	182f883a 	mov	r23,r3
 2001b2c:	200a62c0 	call	200a62c <__muldf3>
 2001b30:	b009883a 	mov	r4,r22
 2001b34:	a80b883a 	mov	r5,r21
 2001b38:	018cccf4 	movhi	r6,13107
 2001b3c:	318cccc4 	addi	r6,r6,13107
 2001b40:	01cffaf4 	movhi	r7,16363
 2001b44:	39ccccc4 	addi	r7,r7,13107
 2001b48:	1029883a 	mov	r20,r2
 2001b4c:	1827883a 	mov	r19,r3
 2001b50:	200a62c0 	call	200a62c <__muldf3>
 2001b54:	0191ebb4 	movhi	r6,18350
 2001b58:	31851ec4 	addi	r6,r6,5243
 2001b5c:	01cfdd34 	movhi	r7,16244
 2001b60:	39deb844 	addi	r7,r7,31457
 2001b64:	e009883a 	mov	r4,fp
 2001b68:	b80b883a 	mov	r5,r23
 2001b6c:	102d883a 	mov	r22,r2
 2001b70:	182b883a 	mov	r21,r3
 2001b74:	200a62c0 	call	200a62c <__muldf3>
 2001b78:	180b883a 	mov	r5,r3
 2001b7c:	1009883a 	mov	r4,r2
 2001b80:	20062000 	call	2006200 <pwm_of_force>
 2001b84:	11008004 	addi	r4,r2,512
 2001b88:	200ac980 	call	200ac98 <__floatsidf>
 2001b8c:	0191ebb4 	movhi	r6,18350
 2001b90:	31851ec4 	addi	r6,r6,5243
 2001b94:	01cfdd34 	movhi	r7,16244
 2001b98:	39deb844 	addi	r7,r7,31457
 2001b9c:	a009883a 	mov	r4,r20
 2001ba0:	980b883a 	mov	r5,r19
 2001ba4:	80800015 	stw	r2,0(r16)
 2001ba8:	80c00115 	stw	r3,4(r16)
 2001bac:	200a62c0 	call	200a62c <__muldf3>
 2001bb0:	1009883a 	mov	r4,r2
 2001bb4:	180b883a 	mov	r5,r3
 2001bb8:	20062000 	call	2006200 <pwm_of_force>
 2001bbc:	11008004 	addi	r4,r2,512
 2001bc0:	200ac980 	call	200ac98 <__floatsidf>
 2001bc4:	88800015 	stw	r2,0(r17)
 2001bc8:	88c00115 	stw	r3,4(r17)
 2001bcc:	0191ebb4 	movhi	r6,18350
 2001bd0:	31851ec4 	addi	r6,r6,5243
 2001bd4:	01cfdd34 	movhi	r7,16244
 2001bd8:	39deb844 	addi	r7,r7,31457
 2001bdc:	b009883a 	mov	r4,r22
 2001be0:	a80b883a 	mov	r5,r21
 2001be4:	200a62c0 	call	200a62c <__muldf3>
 2001be8:	1009883a 	mov	r4,r2
 2001bec:	180b883a 	mov	r5,r3
 2001bf0:	20062000 	call	2006200 <pwm_of_force>
 2001bf4:	11008004 	addi	r4,r2,512
 2001bf8:	200ac980 	call	200ac98 <__floatsidf>
 2001bfc:	90800015 	stw	r2,0(r18)
 2001c00:	90c00115 	stw	r3,4(r18)
 2001c04:	82000017 	ldw	r8,0(r16)
 2001c08:	80c00117 	ldw	r3,4(r16)
 2001c0c:	000d883a 	mov	r6,zero
 2001c10:	4009883a 	mov	r4,r8
 2001c14:	180b883a 	mov	r5,r3
 2001c18:	000f883a 	mov	r7,zero
 2001c1c:	d8c00315 	stw	r3,12(sp)
 2001c20:	da000215 	stw	r8,8(sp)
 2001c24:	200ab7c0 	call	200ab7c <__gtdf2>
 2001c28:	d8c00317 	ldw	r3,12(sp)
 2001c2c:	da000217 	ldw	r8,8(sp)
 2001c30:	0082680e 	bge	zero,r2,20025d4 <stabilizing_motors_force_to_pwm+0x1af4>
 2001c34:	4009883a 	mov	r4,r8
 2001c38:	180b883a 	mov	r5,r3
 2001c3c:	01a666b4 	movhi	r6,39322
 2001c40:	31a66684 	addi	r6,r6,-26214
 2001c44:	01d022b4 	movhi	r7,16522
 2001c48:	39e66644 	addi	r7,r7,-26215
 2001c4c:	200ab7c0 	call	200ab7c <__gtdf2>
 2001c50:	0082260e 	bge	zero,r2,20024ec <stabilizing_motors_force_to_pwm+0x1a0c>
 2001c54:	b009883a 	mov	r4,r22
 2001c58:	a80b883a 	mov	r5,r21
 2001c5c:	018cccf4 	movhi	r6,13107
 2001c60:	318cccc4 	addi	r6,r6,13107
 2001c64:	01cffaf4 	movhi	r7,16363
 2001c68:	39ccccc4 	addi	r7,r7,13107
 2001c6c:	200a62c0 	call	200a62c <__muldf3>
 2001c70:	e009883a 	mov	r4,fp
 2001c74:	b80b883a 	mov	r5,r23
 2001c78:	018cccf4 	movhi	r6,13107
 2001c7c:	318cccc4 	addi	r6,r6,13107
 2001c80:	01cffaf4 	movhi	r7,16363
 2001c84:	39ccccc4 	addi	r7,r7,13107
 2001c88:	102d883a 	mov	r22,r2
 2001c8c:	182b883a 	mov	r21,r3
 2001c90:	200a62c0 	call	200a62c <__muldf3>
 2001c94:	0191ebb4 	movhi	r6,18350
 2001c98:	31851ec4 	addi	r6,r6,5243
 2001c9c:	01cfdd34 	movhi	r7,16244
 2001ca0:	39deb844 	addi	r7,r7,31457
 2001ca4:	1009883a 	mov	r4,r2
 2001ca8:	180b883a 	mov	r5,r3
 2001cac:	200a62c0 	call	200a62c <__muldf3>
 2001cb0:	180b883a 	mov	r5,r3
 2001cb4:	1009883a 	mov	r4,r2
 2001cb8:	20062000 	call	2006200 <pwm_of_force>
 2001cbc:	11008004 	addi	r4,r2,512
 2001cc0:	200ac980 	call	200ac98 <__floatsidf>
 2001cc4:	018cccf4 	movhi	r6,13107
 2001cc8:	318cccc4 	addi	r6,r6,13107
 2001ccc:	01cffaf4 	movhi	r7,16363
 2001cd0:	39ccccc4 	addi	r7,r7,13107
 2001cd4:	a009883a 	mov	r4,r20
 2001cd8:	980b883a 	mov	r5,r19
 2001cdc:	80800015 	stw	r2,0(r16)
 2001ce0:	80c00115 	stw	r3,4(r16)
 2001ce4:	200a62c0 	call	200a62c <__muldf3>
 2001ce8:	0191ebb4 	movhi	r6,18350
 2001cec:	31851ec4 	addi	r6,r6,5243
 2001cf0:	01cfdd34 	movhi	r7,16244
 2001cf4:	39deb844 	addi	r7,r7,31457
 2001cf8:	1009883a 	mov	r4,r2
 2001cfc:	180b883a 	mov	r5,r3
 2001d00:	200a62c0 	call	200a62c <__muldf3>
 2001d04:	1009883a 	mov	r4,r2
 2001d08:	180b883a 	mov	r5,r3
 2001d0c:	20062000 	call	2006200 <pwm_of_force>
 2001d10:	11008004 	addi	r4,r2,512
 2001d14:	200ac980 	call	200ac98 <__floatsidf>
 2001d18:	88800015 	stw	r2,0(r17)
 2001d1c:	88c00115 	stw	r3,4(r17)
 2001d20:	90000e26 	beq	r18,zero,2001d5c <stabilizing_motors_force_to_pwm+0x127c>
 2001d24:	0191ebb4 	movhi	r6,18350
 2001d28:	31851ec4 	addi	r6,r6,5243
 2001d2c:	01cfdd34 	movhi	r7,16244
 2001d30:	39deb844 	addi	r7,r7,31457
 2001d34:	b009883a 	mov	r4,r22
 2001d38:	a80b883a 	mov	r5,r21
 2001d3c:	200a62c0 	call	200a62c <__muldf3>
 2001d40:	1009883a 	mov	r4,r2
 2001d44:	180b883a 	mov	r5,r3
 2001d48:	20062000 	call	2006200 <pwm_of_force>
 2001d4c:	11008004 	addi	r4,r2,512
 2001d50:	200ac980 	call	200ac98 <__floatsidf>
 2001d54:	90800015 	stw	r2,0(r18)
 2001d58:	90c00115 	stw	r3,4(r18)
 2001d5c:	84c00017 	ldw	r19,0(r16)
 2001d60:	84000117 	ldw	r16,4(r16)
 2001d64:	000d883a 	mov	r6,zero
 2001d68:	9809883a 	mov	r4,r19
 2001d6c:	800b883a 	mov	r5,r16
 2001d70:	000f883a 	mov	r7,zero
 2001d74:	200ab7c0 	call	200ab7c <__gtdf2>
 2001d78:	0082180e 	bge	zero,r2,20025dc <stabilizing_motors_force_to_pwm+0x1afc>
 2001d7c:	9809883a 	mov	r4,r19
 2001d80:	800b883a 	mov	r5,r16
 2001d84:	01a666b4 	movhi	r6,39322
 2001d88:	31a66684 	addi	r6,r6,-26214
 2001d8c:	01d022b4 	movhi	r7,16522
 2001d90:	39e66644 	addi	r7,r7,-26215
 2001d94:	200ab7c0 	call	200ab7c <__gtdf2>
 2001d98:	00800044 	movi	r2,1
 2001d9c:	dfc00d17 	ldw	ra,52(sp)
 2001da0:	df000c17 	ldw	fp,48(sp)
 2001da4:	ddc00b17 	ldw	r23,44(sp)
 2001da8:	dd800a17 	ldw	r22,40(sp)
 2001dac:	dd400917 	ldw	r21,36(sp)
 2001db0:	dd000817 	ldw	r20,32(sp)
 2001db4:	dcc00717 	ldw	r19,28(sp)
 2001db8:	dc800617 	ldw	r18,24(sp)
 2001dbc:	dc400517 	ldw	r17,20(sp)
 2001dc0:	dc000417 	ldw	r16,16(sp)
 2001dc4:	dec00e04 	addi	sp,sp,56
 2001dc8:	f800283a 	ret
 2001dcc:	d9000017 	ldw	r4,0(sp)
 2001dd0:	d9400117 	ldw	r5,4(sp)
 2001dd4:	018cccf4 	movhi	r6,13107
 2001dd8:	318cccc4 	addi	r6,r6,13107
 2001ddc:	01cffaf4 	movhi	r7,16363
 2001de0:	39ccccc4 	addi	r7,r7,13107
 2001de4:	200a62c0 	call	200a62c <__muldf3>
 2001de8:	a009883a 	mov	r4,r20
 2001dec:	980b883a 	mov	r5,r19
 2001df0:	018cccf4 	movhi	r6,13107
 2001df4:	318cccc4 	addi	r6,r6,13107
 2001df8:	01cffaf4 	movhi	r7,16363
 2001dfc:	39ccccc4 	addi	r7,r7,13107
 2001e00:	1039883a 	mov	fp,r2
 2001e04:	182f883a 	mov	r23,r3
 2001e08:	200a62c0 	call	200a62c <__muldf3>
 2001e0c:	b009883a 	mov	r4,r22
 2001e10:	a80b883a 	mov	r5,r21
 2001e14:	018cccf4 	movhi	r6,13107
 2001e18:	318cccc4 	addi	r6,r6,13107
 2001e1c:	01cffaf4 	movhi	r7,16363
 2001e20:	39ccccc4 	addi	r7,r7,13107
 2001e24:	1029883a 	mov	r20,r2
 2001e28:	1827883a 	mov	r19,r3
 2001e2c:	200a62c0 	call	200a62c <__muldf3>
 2001e30:	0191ebb4 	movhi	r6,18350
 2001e34:	31851ec4 	addi	r6,r6,5243
 2001e38:	01cfdd34 	movhi	r7,16244
 2001e3c:	39deb844 	addi	r7,r7,31457
 2001e40:	e009883a 	mov	r4,fp
 2001e44:	b80b883a 	mov	r5,r23
 2001e48:	102d883a 	mov	r22,r2
 2001e4c:	182b883a 	mov	r21,r3
 2001e50:	200a62c0 	call	200a62c <__muldf3>
 2001e54:	180b883a 	mov	r5,r3
 2001e58:	1009883a 	mov	r4,r2
 2001e5c:	20062000 	call	2006200 <pwm_of_force>
 2001e60:	11008004 	addi	r4,r2,512
 2001e64:	200ac980 	call	200ac98 <__floatsidf>
 2001e68:	0191ebb4 	movhi	r6,18350
 2001e6c:	31851ec4 	addi	r6,r6,5243
 2001e70:	01cfdd34 	movhi	r7,16244
 2001e74:	39deb844 	addi	r7,r7,31457
 2001e78:	a009883a 	mov	r4,r20
 2001e7c:	980b883a 	mov	r5,r19
 2001e80:	80800015 	stw	r2,0(r16)
 2001e84:	80c00115 	stw	r3,4(r16)
 2001e88:	200a62c0 	call	200a62c <__muldf3>
 2001e8c:	1009883a 	mov	r4,r2
 2001e90:	180b883a 	mov	r5,r3
 2001e94:	20062000 	call	2006200 <pwm_of_force>
 2001e98:	11008004 	addi	r4,r2,512
 2001e9c:	200ac980 	call	200ac98 <__floatsidf>
 2001ea0:	88800015 	stw	r2,0(r17)
 2001ea4:	88c00115 	stw	r3,4(r17)
 2001ea8:	903bba1e 	bne	r18,zero,2000d94 <stabilizing_motors_force_to_pwm+0x2b4>
 2001eac:	003bc706 	br	2000dcc <stabilizing_motors_force_to_pwm+0x2ec>
 2001eb0:	e009883a 	mov	r4,fp
 2001eb4:	b80b883a 	mov	r5,r23
 2001eb8:	018cccf4 	movhi	r6,13107
 2001ebc:	318cccc4 	addi	r6,r6,13107
 2001ec0:	01cffaf4 	movhi	r7,16363
 2001ec4:	39ccccc4 	addi	r7,r7,13107
 2001ec8:	200a62c0 	call	200a62c <__muldf3>
 2001ecc:	a009883a 	mov	r4,r20
 2001ed0:	980b883a 	mov	r5,r19
 2001ed4:	018cccf4 	movhi	r6,13107
 2001ed8:	318cccc4 	addi	r6,r6,13107
 2001edc:	01cffaf4 	movhi	r7,16363
 2001ee0:	39ccccc4 	addi	r7,r7,13107
 2001ee4:	1039883a 	mov	fp,r2
 2001ee8:	182f883a 	mov	r23,r3
 2001eec:	200a62c0 	call	200a62c <__muldf3>
 2001ef0:	b009883a 	mov	r4,r22
 2001ef4:	a80b883a 	mov	r5,r21
 2001ef8:	018cccf4 	movhi	r6,13107
 2001efc:	318cccc4 	addi	r6,r6,13107
 2001f00:	01cffaf4 	movhi	r7,16363
 2001f04:	39ccccc4 	addi	r7,r7,13107
 2001f08:	1029883a 	mov	r20,r2
 2001f0c:	1827883a 	mov	r19,r3
 2001f10:	200a62c0 	call	200a62c <__muldf3>
 2001f14:	0191ebb4 	movhi	r6,18350
 2001f18:	31851ec4 	addi	r6,r6,5243
 2001f1c:	01cfdd34 	movhi	r7,16244
 2001f20:	39deb844 	addi	r7,r7,31457
 2001f24:	e009883a 	mov	r4,fp
 2001f28:	b80b883a 	mov	r5,r23
 2001f2c:	102d883a 	mov	r22,r2
 2001f30:	182b883a 	mov	r21,r3
 2001f34:	200a62c0 	call	200a62c <__muldf3>
 2001f38:	180b883a 	mov	r5,r3
 2001f3c:	1009883a 	mov	r4,r2
 2001f40:	20062000 	call	2006200 <pwm_of_force>
 2001f44:	11008004 	addi	r4,r2,512
 2001f48:	200ac980 	call	200ac98 <__floatsidf>
 2001f4c:	0191ebb4 	movhi	r6,18350
 2001f50:	31851ec4 	addi	r6,r6,5243
 2001f54:	01cfdd34 	movhi	r7,16244
 2001f58:	39deb844 	addi	r7,r7,31457
 2001f5c:	a009883a 	mov	r4,r20
 2001f60:	980b883a 	mov	r5,r19
 2001f64:	80800015 	stw	r2,0(r16)
 2001f68:	80c00115 	stw	r3,4(r16)
 2001f6c:	200a62c0 	call	200a62c <__muldf3>
 2001f70:	1009883a 	mov	r4,r2
 2001f74:	180b883a 	mov	r5,r3
 2001f78:	20062000 	call	2006200 <pwm_of_force>
 2001f7c:	11008004 	addi	r4,r2,512
 2001f80:	200ac980 	call	200ac98 <__floatsidf>
 2001f84:	88800015 	stw	r2,0(r17)
 2001f88:	88c00115 	stw	r3,4(r17)
 2001f8c:	903c031e 	bne	r18,zero,2000f9c <stabilizing_motors_force_to_pwm+0x4bc>
 2001f90:	003c1006 	br	2000fd4 <stabilizing_motors_force_to_pwm+0x4f4>
 2001f94:	e009883a 	mov	r4,fp
 2001f98:	b80b883a 	mov	r5,r23
 2001f9c:	018cccf4 	movhi	r6,13107
 2001fa0:	318cccc4 	addi	r6,r6,13107
 2001fa4:	01cffaf4 	movhi	r7,16363
 2001fa8:	39ccccc4 	addi	r7,r7,13107
 2001fac:	200a62c0 	call	200a62c <__muldf3>
 2001fb0:	a009883a 	mov	r4,r20
 2001fb4:	980b883a 	mov	r5,r19
 2001fb8:	018cccf4 	movhi	r6,13107
 2001fbc:	318cccc4 	addi	r6,r6,13107
 2001fc0:	01cffaf4 	movhi	r7,16363
 2001fc4:	39ccccc4 	addi	r7,r7,13107
 2001fc8:	1039883a 	mov	fp,r2
 2001fcc:	182f883a 	mov	r23,r3
 2001fd0:	200a62c0 	call	200a62c <__muldf3>
 2001fd4:	b009883a 	mov	r4,r22
 2001fd8:	a80b883a 	mov	r5,r21
 2001fdc:	018cccf4 	movhi	r6,13107
 2001fe0:	318cccc4 	addi	r6,r6,13107
 2001fe4:	01cffaf4 	movhi	r7,16363
 2001fe8:	39ccccc4 	addi	r7,r7,13107
 2001fec:	1029883a 	mov	r20,r2
 2001ff0:	1827883a 	mov	r19,r3
 2001ff4:	200a62c0 	call	200a62c <__muldf3>
 2001ff8:	0191ebb4 	movhi	r6,18350
 2001ffc:	31851ec4 	addi	r6,r6,5243
 2002000:	01cfdd34 	movhi	r7,16244
 2002004:	39deb844 	addi	r7,r7,31457
 2002008:	e009883a 	mov	r4,fp
 200200c:	b80b883a 	mov	r5,r23
 2002010:	102d883a 	mov	r22,r2
 2002014:	182b883a 	mov	r21,r3
 2002018:	200a62c0 	call	200a62c <__muldf3>
 200201c:	180b883a 	mov	r5,r3
 2002020:	1009883a 	mov	r4,r2
 2002024:	20062000 	call	2006200 <pwm_of_force>
 2002028:	11008004 	addi	r4,r2,512
 200202c:	200ac980 	call	200ac98 <__floatsidf>
 2002030:	0191ebb4 	movhi	r6,18350
 2002034:	31851ec4 	addi	r6,r6,5243
 2002038:	01cfdd34 	movhi	r7,16244
 200203c:	39deb844 	addi	r7,r7,31457
 2002040:	a009883a 	mov	r4,r20
 2002044:	980b883a 	mov	r5,r19
 2002048:	80800015 	stw	r2,0(r16)
 200204c:	80c00115 	stw	r3,4(r16)
 2002050:	200a62c0 	call	200a62c <__muldf3>
 2002054:	1009883a 	mov	r4,r2
 2002058:	180b883a 	mov	r5,r3
 200205c:	20062000 	call	2006200 <pwm_of_force>
 2002060:	11008004 	addi	r4,r2,512
 2002064:	200ac980 	call	200ac98 <__floatsidf>
 2002068:	88800015 	stw	r2,0(r17)
 200206c:	88c00115 	stw	r3,4(r17)
 2002070:	903c4c1e 	bne	r18,zero,20011a4 <stabilizing_motors_force_to_pwm+0x6c4>
 2002074:	003c5906 	br	20011dc <stabilizing_motors_force_to_pwm+0x6fc>
 2002078:	e009883a 	mov	r4,fp
 200207c:	b80b883a 	mov	r5,r23
 2002080:	018cccf4 	movhi	r6,13107
 2002084:	318cccc4 	addi	r6,r6,13107
 2002088:	01cffaf4 	movhi	r7,16363
 200208c:	39ccccc4 	addi	r7,r7,13107
 2002090:	200a62c0 	call	200a62c <__muldf3>
 2002094:	a009883a 	mov	r4,r20
 2002098:	980b883a 	mov	r5,r19
 200209c:	018cccf4 	movhi	r6,13107
 20020a0:	318cccc4 	addi	r6,r6,13107
 20020a4:	01cffaf4 	movhi	r7,16363
 20020a8:	39ccccc4 	addi	r7,r7,13107
 20020ac:	1039883a 	mov	fp,r2
 20020b0:	182f883a 	mov	r23,r3
 20020b4:	200a62c0 	call	200a62c <__muldf3>
 20020b8:	b009883a 	mov	r4,r22
 20020bc:	a80b883a 	mov	r5,r21
 20020c0:	018cccf4 	movhi	r6,13107
 20020c4:	318cccc4 	addi	r6,r6,13107
 20020c8:	01cffaf4 	movhi	r7,16363
 20020cc:	39ccccc4 	addi	r7,r7,13107
 20020d0:	1029883a 	mov	r20,r2
 20020d4:	1827883a 	mov	r19,r3
 20020d8:	200a62c0 	call	200a62c <__muldf3>
 20020dc:	0191ebb4 	movhi	r6,18350
 20020e0:	31851ec4 	addi	r6,r6,5243
 20020e4:	01cfdd34 	movhi	r7,16244
 20020e8:	39deb844 	addi	r7,r7,31457
 20020ec:	e009883a 	mov	r4,fp
 20020f0:	b80b883a 	mov	r5,r23
 20020f4:	102d883a 	mov	r22,r2
 20020f8:	182b883a 	mov	r21,r3
 20020fc:	200a62c0 	call	200a62c <__muldf3>
 2002100:	180b883a 	mov	r5,r3
 2002104:	1009883a 	mov	r4,r2
 2002108:	20062000 	call	2006200 <pwm_of_force>
 200210c:	11008004 	addi	r4,r2,512
 2002110:	200ac980 	call	200ac98 <__floatsidf>
 2002114:	0191ebb4 	movhi	r6,18350
 2002118:	31851ec4 	addi	r6,r6,5243
 200211c:	01cfdd34 	movhi	r7,16244
 2002120:	39deb844 	addi	r7,r7,31457
 2002124:	a009883a 	mov	r4,r20
 2002128:	980b883a 	mov	r5,r19
 200212c:	80800015 	stw	r2,0(r16)
 2002130:	80c00115 	stw	r3,4(r16)
 2002134:	200a62c0 	call	200a62c <__muldf3>
 2002138:	1009883a 	mov	r4,r2
 200213c:	180b883a 	mov	r5,r3
 2002140:	20062000 	call	2006200 <pwm_of_force>
 2002144:	11008004 	addi	r4,r2,512
 2002148:	200ac980 	call	200ac98 <__floatsidf>
 200214c:	88800015 	stw	r2,0(r17)
 2002150:	88c00115 	stw	r3,4(r17)
 2002154:	903c951e 	bne	r18,zero,20013ac <stabilizing_motors_force_to_pwm+0x8cc>
 2002158:	003ca206 	br	20013e4 <stabilizing_motors_force_to_pwm+0x904>
 200215c:	e009883a 	mov	r4,fp
 2002160:	b80b883a 	mov	r5,r23
 2002164:	018cccf4 	movhi	r6,13107
 2002168:	318cccc4 	addi	r6,r6,13107
 200216c:	01cffaf4 	movhi	r7,16363
 2002170:	39ccccc4 	addi	r7,r7,13107
 2002174:	200a62c0 	call	200a62c <__muldf3>
 2002178:	a009883a 	mov	r4,r20
 200217c:	980b883a 	mov	r5,r19
 2002180:	018cccf4 	movhi	r6,13107
 2002184:	318cccc4 	addi	r6,r6,13107
 2002188:	01cffaf4 	movhi	r7,16363
 200218c:	39ccccc4 	addi	r7,r7,13107
 2002190:	1039883a 	mov	fp,r2
 2002194:	182f883a 	mov	r23,r3
 2002198:	200a62c0 	call	200a62c <__muldf3>
 200219c:	b009883a 	mov	r4,r22
 20021a0:	a80b883a 	mov	r5,r21
 20021a4:	018cccf4 	movhi	r6,13107
 20021a8:	318cccc4 	addi	r6,r6,13107
 20021ac:	01cffaf4 	movhi	r7,16363
 20021b0:	39ccccc4 	addi	r7,r7,13107
 20021b4:	1029883a 	mov	r20,r2
 20021b8:	1827883a 	mov	r19,r3
 20021bc:	200a62c0 	call	200a62c <__muldf3>
 20021c0:	0191ebb4 	movhi	r6,18350
 20021c4:	31851ec4 	addi	r6,r6,5243
 20021c8:	01cfdd34 	movhi	r7,16244
 20021cc:	39deb844 	addi	r7,r7,31457
 20021d0:	e009883a 	mov	r4,fp
 20021d4:	b80b883a 	mov	r5,r23
 20021d8:	102d883a 	mov	r22,r2
 20021dc:	182b883a 	mov	r21,r3
 20021e0:	200a62c0 	call	200a62c <__muldf3>
 20021e4:	180b883a 	mov	r5,r3
 20021e8:	1009883a 	mov	r4,r2
 20021ec:	20062000 	call	2006200 <pwm_of_force>
 20021f0:	11008004 	addi	r4,r2,512
 20021f4:	200ac980 	call	200ac98 <__floatsidf>
 20021f8:	0191ebb4 	movhi	r6,18350
 20021fc:	31851ec4 	addi	r6,r6,5243
 2002200:	01cfdd34 	movhi	r7,16244
 2002204:	39deb844 	addi	r7,r7,31457
 2002208:	a009883a 	mov	r4,r20
 200220c:	980b883a 	mov	r5,r19
 2002210:	80800015 	stw	r2,0(r16)
 2002214:	80c00115 	stw	r3,4(r16)
 2002218:	200a62c0 	call	200a62c <__muldf3>
 200221c:	1009883a 	mov	r4,r2
 2002220:	180b883a 	mov	r5,r3
 2002224:	20062000 	call	2006200 <pwm_of_force>
 2002228:	11008004 	addi	r4,r2,512
 200222c:	200ac980 	call	200ac98 <__floatsidf>
 2002230:	88800015 	stw	r2,0(r17)
 2002234:	88c00115 	stw	r3,4(r17)
 2002238:	903cde1e 	bne	r18,zero,20015b4 <stabilizing_motors_force_to_pwm+0xad4>
 200223c:	003ceb06 	br	20015ec <stabilizing_motors_force_to_pwm+0xb0c>
 2002240:	e009883a 	mov	r4,fp
 2002244:	b80b883a 	mov	r5,r23
 2002248:	018cccf4 	movhi	r6,13107
 200224c:	318cccc4 	addi	r6,r6,13107
 2002250:	01cffaf4 	movhi	r7,16363
 2002254:	39ccccc4 	addi	r7,r7,13107
 2002258:	200a62c0 	call	200a62c <__muldf3>
 200225c:	a009883a 	mov	r4,r20
 2002260:	980b883a 	mov	r5,r19
 2002264:	018cccf4 	movhi	r6,13107
 2002268:	318cccc4 	addi	r6,r6,13107
 200226c:	01cffaf4 	movhi	r7,16363
 2002270:	39ccccc4 	addi	r7,r7,13107
 2002274:	1039883a 	mov	fp,r2
 2002278:	182f883a 	mov	r23,r3
 200227c:	200a62c0 	call	200a62c <__muldf3>
 2002280:	b009883a 	mov	r4,r22
 2002284:	a80b883a 	mov	r5,r21
 2002288:	018cccf4 	movhi	r6,13107
 200228c:	318cccc4 	addi	r6,r6,13107
 2002290:	01cffaf4 	movhi	r7,16363
 2002294:	39ccccc4 	addi	r7,r7,13107
 2002298:	1029883a 	mov	r20,r2
 200229c:	1827883a 	mov	r19,r3
 20022a0:	200a62c0 	call	200a62c <__muldf3>
 20022a4:	0191ebb4 	movhi	r6,18350
 20022a8:	31851ec4 	addi	r6,r6,5243
 20022ac:	01cfdd34 	movhi	r7,16244
 20022b0:	39deb844 	addi	r7,r7,31457
 20022b4:	e009883a 	mov	r4,fp
 20022b8:	b80b883a 	mov	r5,r23
 20022bc:	102d883a 	mov	r22,r2
 20022c0:	182b883a 	mov	r21,r3
 20022c4:	200a62c0 	call	200a62c <__muldf3>
 20022c8:	180b883a 	mov	r5,r3
 20022cc:	1009883a 	mov	r4,r2
 20022d0:	20062000 	call	2006200 <pwm_of_force>
 20022d4:	11008004 	addi	r4,r2,512
 20022d8:	200ac980 	call	200ac98 <__floatsidf>
 20022dc:	0191ebb4 	movhi	r6,18350
 20022e0:	31851ec4 	addi	r6,r6,5243
 20022e4:	01cfdd34 	movhi	r7,16244
 20022e8:	39deb844 	addi	r7,r7,31457
 20022ec:	a009883a 	mov	r4,r20
 20022f0:	980b883a 	mov	r5,r19
 20022f4:	80800015 	stw	r2,0(r16)
 20022f8:	80c00115 	stw	r3,4(r16)
 20022fc:	200a62c0 	call	200a62c <__muldf3>
 2002300:	1009883a 	mov	r4,r2
 2002304:	180b883a 	mov	r5,r3
 2002308:	20062000 	call	2006200 <pwm_of_force>
 200230c:	11008004 	addi	r4,r2,512
 2002310:	200ac980 	call	200ac98 <__floatsidf>
 2002314:	88800015 	stw	r2,0(r17)
 2002318:	88c00115 	stw	r3,4(r17)
 200231c:	903d271e 	bne	r18,zero,20017bc <stabilizing_motors_force_to_pwm+0xcdc>
 2002320:	003d3406 	br	20017f4 <stabilizing_motors_force_to_pwm+0xd14>
 2002324:	e009883a 	mov	r4,fp
 2002328:	b80b883a 	mov	r5,r23
 200232c:	018cccf4 	movhi	r6,13107
 2002330:	318cccc4 	addi	r6,r6,13107
 2002334:	01cffaf4 	movhi	r7,16363
 2002338:	39ccccc4 	addi	r7,r7,13107
 200233c:	200a62c0 	call	200a62c <__muldf3>
 2002340:	a009883a 	mov	r4,r20
 2002344:	980b883a 	mov	r5,r19
 2002348:	018cccf4 	movhi	r6,13107
 200234c:	318cccc4 	addi	r6,r6,13107
 2002350:	01cffaf4 	movhi	r7,16363
 2002354:	39ccccc4 	addi	r7,r7,13107
 2002358:	1039883a 	mov	fp,r2
 200235c:	182f883a 	mov	r23,r3
 2002360:	200a62c0 	call	200a62c <__muldf3>
 2002364:	b009883a 	mov	r4,r22
 2002368:	a80b883a 	mov	r5,r21
 200236c:	018cccf4 	movhi	r6,13107
 2002370:	318cccc4 	addi	r6,r6,13107
 2002374:	01cffaf4 	movhi	r7,16363
 2002378:	39ccccc4 	addi	r7,r7,13107
 200237c:	1029883a 	mov	r20,r2
 2002380:	1827883a 	mov	r19,r3
 2002384:	200a62c0 	call	200a62c <__muldf3>
 2002388:	0191ebb4 	movhi	r6,18350
 200238c:	31851ec4 	addi	r6,r6,5243
 2002390:	01cfdd34 	movhi	r7,16244
 2002394:	39deb844 	addi	r7,r7,31457
 2002398:	e009883a 	mov	r4,fp
 200239c:	b80b883a 	mov	r5,r23
 20023a0:	102d883a 	mov	r22,r2
 20023a4:	182b883a 	mov	r21,r3
 20023a8:	200a62c0 	call	200a62c <__muldf3>
 20023ac:	180b883a 	mov	r5,r3
 20023b0:	1009883a 	mov	r4,r2
 20023b4:	20062000 	call	2006200 <pwm_of_force>
 20023b8:	11008004 	addi	r4,r2,512
 20023bc:	200ac980 	call	200ac98 <__floatsidf>
 20023c0:	0191ebb4 	movhi	r6,18350
 20023c4:	31851ec4 	addi	r6,r6,5243
 20023c8:	01cfdd34 	movhi	r7,16244
 20023cc:	39deb844 	addi	r7,r7,31457
 20023d0:	a009883a 	mov	r4,r20
 20023d4:	980b883a 	mov	r5,r19
 20023d8:	80800015 	stw	r2,0(r16)
 20023dc:	80c00115 	stw	r3,4(r16)
 20023e0:	200a62c0 	call	200a62c <__muldf3>
 20023e4:	1009883a 	mov	r4,r2
 20023e8:	180b883a 	mov	r5,r3
 20023ec:	20062000 	call	2006200 <pwm_of_force>
 20023f0:	11008004 	addi	r4,r2,512
 20023f4:	200ac980 	call	200ac98 <__floatsidf>
 20023f8:	88800015 	stw	r2,0(r17)
 20023fc:	88c00115 	stw	r3,4(r17)
 2002400:	903d701e 	bne	r18,zero,20019c4 <stabilizing_motors_force_to_pwm+0xee4>
 2002404:	003d7d06 	br	20019fc <stabilizing_motors_force_to_pwm+0xf1c>
 2002408:	e009883a 	mov	r4,fp
 200240c:	b80b883a 	mov	r5,r23
 2002410:	018cccf4 	movhi	r6,13107
 2002414:	318cccc4 	addi	r6,r6,13107
 2002418:	01cffaf4 	movhi	r7,16363
 200241c:	39ccccc4 	addi	r7,r7,13107
 2002420:	200a62c0 	call	200a62c <__muldf3>
 2002424:	a009883a 	mov	r4,r20
 2002428:	980b883a 	mov	r5,r19
 200242c:	018cccf4 	movhi	r6,13107
 2002430:	318cccc4 	addi	r6,r6,13107
 2002434:	01cffaf4 	movhi	r7,16363
 2002438:	39ccccc4 	addi	r7,r7,13107
 200243c:	1039883a 	mov	fp,r2
 2002440:	182f883a 	mov	r23,r3
 2002444:	200a62c0 	call	200a62c <__muldf3>
 2002448:	b009883a 	mov	r4,r22
 200244c:	a80b883a 	mov	r5,r21
 2002450:	018cccf4 	movhi	r6,13107
 2002454:	318cccc4 	addi	r6,r6,13107
 2002458:	01cffaf4 	movhi	r7,16363
 200245c:	39ccccc4 	addi	r7,r7,13107
 2002460:	1029883a 	mov	r20,r2
 2002464:	1827883a 	mov	r19,r3
 2002468:	200a62c0 	call	200a62c <__muldf3>
 200246c:	0191ebb4 	movhi	r6,18350
 2002470:	31851ec4 	addi	r6,r6,5243
 2002474:	01cfdd34 	movhi	r7,16244
 2002478:	39deb844 	addi	r7,r7,31457
 200247c:	e009883a 	mov	r4,fp
 2002480:	b80b883a 	mov	r5,r23
 2002484:	102d883a 	mov	r22,r2
 2002488:	182b883a 	mov	r21,r3
 200248c:	200a62c0 	call	200a62c <__muldf3>
 2002490:	180b883a 	mov	r5,r3
 2002494:	1009883a 	mov	r4,r2
 2002498:	20062000 	call	2006200 <pwm_of_force>
 200249c:	11008004 	addi	r4,r2,512
 20024a0:	200ac980 	call	200ac98 <__floatsidf>
 20024a4:	0191ebb4 	movhi	r6,18350
 20024a8:	31851ec4 	addi	r6,r6,5243
 20024ac:	01cfdd34 	movhi	r7,16244
 20024b0:	39deb844 	addi	r7,r7,31457
 20024b4:	a009883a 	mov	r4,r20
 20024b8:	980b883a 	mov	r5,r19
 20024bc:	80800015 	stw	r2,0(r16)
 20024c0:	80c00115 	stw	r3,4(r16)
 20024c4:	200a62c0 	call	200a62c <__muldf3>
 20024c8:	1009883a 	mov	r4,r2
 20024cc:	180b883a 	mov	r5,r3
 20024d0:	20062000 	call	2006200 <pwm_of_force>
 20024d4:	11008004 	addi	r4,r2,512
 20024d8:	200ac980 	call	200ac98 <__floatsidf>
 20024dc:	88800015 	stw	r2,0(r17)
 20024e0:	88c00115 	stw	r3,4(r17)
 20024e4:	903db91e 	bne	r18,zero,2001bcc <stabilizing_motors_force_to_pwm+0x10ec>
 20024e8:	003dc606 	br	2001c04 <stabilizing_motors_force_to_pwm+0x1124>
 20024ec:	8a000017 	ldw	r8,0(r17)
 20024f0:	88c00117 	ldw	r3,4(r17)
 20024f4:	000d883a 	mov	r6,zero
 20024f8:	4009883a 	mov	r4,r8
 20024fc:	180b883a 	mov	r5,r3
 2002500:	000f883a 	mov	r7,zero
 2002504:	d8c00315 	stw	r3,12(sp)
 2002508:	da000215 	stw	r8,8(sp)
 200250c:	200ab7c0 	call	200ab7c <__gtdf2>
 2002510:	d8c00317 	ldw	r3,12(sp)
 2002514:	da000217 	ldw	r8,8(sp)
 2002518:	00805c0e 	bge	zero,r2,200268c <stabilizing_motors_force_to_pwm+0x1bac>
 200251c:	4009883a 	mov	r4,r8
 2002520:	180b883a 	mov	r5,r3
 2002524:	01a666b4 	movhi	r6,39322
 2002528:	31a66684 	addi	r6,r6,-26214
 200252c:	01d022b4 	movhi	r7,16522
 2002530:	39e66644 	addi	r7,r7,-26215
 2002534:	200ab7c0 	call	200ab7c <__gtdf2>
 2002538:	00bdc616 	blt	zero,r2,2001c54 <stabilizing_motors_force_to_pwm+0x1174>
 200253c:	903e1626 	beq	r18,zero,2001d98 <stabilizing_motors_force_to_pwm+0x12b8>
 2002540:	92000017 	ldw	r8,0(r18)
 2002544:	90c00117 	ldw	r3,4(r18)
 2002548:	000d883a 	mov	r6,zero
 200254c:	4009883a 	mov	r4,r8
 2002550:	180b883a 	mov	r5,r3
 2002554:	000f883a 	mov	r7,zero
 2002558:	d8c00315 	stw	r3,12(sp)
 200255c:	da000215 	stw	r8,8(sp)
 2002560:	200ab7c0 	call	200ab7c <__gtdf2>
 2002564:	d8c00317 	ldw	r3,12(sp)
 2002568:	da000217 	ldw	r8,8(sp)
 200256c:	0080350e 	bge	zero,r2,2002644 <stabilizing_motors_force_to_pwm+0x1b64>
 2002570:	4009883a 	mov	r4,r8
 2002574:	180b883a 	mov	r5,r3
 2002578:	01a666b4 	movhi	r6,39322
 200257c:	31a66684 	addi	r6,r6,-26214
 2002580:	01d022b4 	movhi	r7,16522
 2002584:	39e66644 	addi	r7,r7,-26215
 2002588:	200ab7c0 	call	200ab7c <__gtdf2>
 200258c:	00bdb116 	blt	zero,r2,2001c54 <stabilizing_motors_force_to_pwm+0x1174>
 2002590:	003e0106 	br	2001d98 <stabilizing_motors_force_to_pwm+0x12b8>
 2002594:	bde0003c 	xorhi	r23,r23,32768
 2002598:	00399606 	br	2000bf4 <stabilizing_motors_force_to_pwm+0x114>
 200259c:	18e0003c 	xorhi	r3,r3,32768
 20025a0:	003a1606 	br	2000dfc <stabilizing_motors_force_to_pwm+0x31c>
 20025a4:	18e0003c 	xorhi	r3,r3,32768
 20025a8:	003a9606 	br	2001004 <stabilizing_motors_force_to_pwm+0x524>
 20025ac:	18e0003c 	xorhi	r3,r3,32768
 20025b0:	003b1606 	br	200120c <stabilizing_motors_force_to_pwm+0x72c>
 20025b4:	18e0003c 	xorhi	r3,r3,32768
 20025b8:	003b9606 	br	2001414 <stabilizing_motors_force_to_pwm+0x934>
 20025bc:	18e0003c 	xorhi	r3,r3,32768
 20025c0:	003c1606 	br	200161c <stabilizing_motors_force_to_pwm+0xb3c>
 20025c4:	18e0003c 	xorhi	r3,r3,32768
 20025c8:	003c9606 	br	2001824 <stabilizing_motors_force_to_pwm+0xd44>
 20025cc:	18e0003c 	xorhi	r3,r3,32768
 20025d0:	003d1606 	br	2001a2c <stabilizing_motors_force_to_pwm+0xf4c>
 20025d4:	18e0003c 	xorhi	r3,r3,32768
 20025d8:	003d9606 	br	2001c34 <stabilizing_motors_force_to_pwm+0x1154>
 20025dc:	8420003c 	xorhi	r16,r16,32768
 20025e0:	003de606 	br	2001d7c <stabilizing_motors_force_to_pwm+0x129c>
 20025e4:	18e0003c 	xorhi	r3,r3,32768
 20025e8:	4009883a 	mov	r4,r8
 20025ec:	180b883a 	mov	r5,r3
 20025f0:	01a666b4 	movhi	r6,39322
 20025f4:	31a66684 	addi	r6,r6,-26214
 20025f8:	01d022b4 	movhi	r7,16522
 20025fc:	39e66644 	addi	r7,r7,-26215
 2002600:	200ab7c0 	call	200ab7c <__gtdf2>
 2002604:	00bdf116 	blt	zero,r2,2001dcc <stabilizing_motors_force_to_pwm+0x12ec>
 2002608:	00399606 	br	2000c64 <stabilizing_motors_force_to_pwm+0x184>
 200260c:	18e0003c 	xorhi	r3,r3,32768
 2002610:	0039a106 	br	2000c98 <stabilizing_motors_force_to_pwm+0x1b8>
 2002614:	18e0003c 	xorhi	r3,r3,32768
 2002618:	003a2106 	br	2000ea0 <stabilizing_motors_force_to_pwm+0x3c0>
 200261c:	18e0003c 	xorhi	r3,r3,32768
 2002620:	003aa106 	br	20010a8 <stabilizing_motors_force_to_pwm+0x5c8>
 2002624:	18e0003c 	xorhi	r3,r3,32768
 2002628:	003b2106 	br	20012b0 <stabilizing_motors_force_to_pwm+0x7d0>
 200262c:	18e0003c 	xorhi	r3,r3,32768
 2002630:	003ba106 	br	20014b8 <stabilizing_motors_force_to_pwm+0x9d8>
 2002634:	18e0003c 	xorhi	r3,r3,32768
 2002638:	003c2106 	br	20016c0 <stabilizing_motors_force_to_pwm+0xbe0>
 200263c:	18e0003c 	xorhi	r3,r3,32768
 2002640:	003ca106 	br	20018c8 <stabilizing_motors_force_to_pwm+0xde8>
 2002644:	18e0003c 	xorhi	r3,r3,32768
 2002648:	003fc906 	br	2002570 <stabilizing_motors_force_to_pwm+0x1a90>
 200264c:	18e0003c 	xorhi	r3,r3,32768
 2002650:	003d1f06 	br	2001ad0 <stabilizing_motors_force_to_pwm+0xff0>
 2002654:	18e0003c 	xorhi	r3,r3,32768
 2002658:	0039fc06 	br	2000e4c <stabilizing_motors_force_to_pwm+0x36c>
 200265c:	18e0003c 	xorhi	r3,r3,32768
 2002660:	003a7c06 	br	2001054 <stabilizing_motors_force_to_pwm+0x574>
 2002664:	18e0003c 	xorhi	r3,r3,32768
 2002668:	003afc06 	br	200125c <stabilizing_motors_force_to_pwm+0x77c>
 200266c:	18e0003c 	xorhi	r3,r3,32768
 2002670:	003b7c06 	br	2001464 <stabilizing_motors_force_to_pwm+0x984>
 2002674:	18e0003c 	xorhi	r3,r3,32768
 2002678:	003bfc06 	br	200166c <stabilizing_motors_force_to_pwm+0xb8c>
 200267c:	18e0003c 	xorhi	r3,r3,32768
 2002680:	003c7c06 	br	2001874 <stabilizing_motors_force_to_pwm+0xd94>
 2002684:	18e0003c 	xorhi	r3,r3,32768
 2002688:	003cfc06 	br	2001a7c <stabilizing_motors_force_to_pwm+0xf9c>
 200268c:	18e0003c 	xorhi	r3,r3,32768
 2002690:	003fa206 	br	200251c <stabilizing_motors_force_to_pwm+0x1a3c>
 2002694:	0005883a 	mov	r2,zero
 2002698:	003dc006 	br	2001d9c <stabilizing_motors_force_to_pwm+0x12bc>

0200269c <calculate_pid>:
 200269c:	deffea04 	addi	sp,sp,-88
 20026a0:	dc000c15 	stw	r16,48(sp)
 20026a4:	040080b4 	movhi	r16,514
 20026a8:	84090104 	addi	r16,r16,9220
 20026ac:	8009883a 	mov	r4,r16
 20026b0:	dfc01515 	stw	ra,84(sp)
 20026b4:	df001415 	stw	fp,80(sp)
 20026b8:	ddc01315 	stw	r23,76(sp)
 20026bc:	dd801215 	stw	r22,72(sp)
 20026c0:	dd401115 	stw	r21,68(sp)
 20026c4:	dd001015 	stw	r20,64(sp)
 20026c8:	dcc00f15 	stw	r19,60(sp)
 20026cc:	dc800e15 	stw	r18,56(sp)
 20026d0:	dc400d15 	stw	r17,52(sp)
 20026d4:	20065080 	call	2006508 <get_imu_orientation>
 20026d8:	d0a77717 	ldw	r2,-25124(gp)
 20026dc:	8007883a 	mov	r3,r16
 20026e0:	10083816 	blt	r2,zero,20047c4 <calculate_pid+0x2128>
 20026e4:	1005d1ba 	srai	r2,r2,6
 20026e8:	81000217 	ldw	r4,8(r16)
 20026ec:	054080b4 	movhi	r21,514
 20026f0:	ad490604 	addi	r21,r21,9240
 20026f4:	18800415 	stw	r2,16(r3)
 20026f8:	200ac980 	call	200ac98 <__floatsidf>
 20026fc:	100b883a 	mov	r5,r2
 2002700:	180d883a 	mov	r6,r3
 2002704:	010080b4 	movhi	r4,514
 2002708:	21092004 	addi	r4,r4,9344
 200270c:	2005bd40 	call	2005bd4 <PID_Update>
 2002710:	81000117 	ldw	r4,4(r16)
 2002714:	200ac980 	call	200ac98 <__floatsidf>
 2002718:	100b883a 	mov	r5,r2
 200271c:	180d883a 	mov	r6,r3
 2002720:	010080b4 	movhi	r4,514
 2002724:	21090b04 	addi	r4,r4,9260
 2002728:	2005bd40 	call	2005bd4 <PID_Update>
 200272c:	80800017 	ldw	r2,0(r16)
 2002730:	a9000017 	ldw	r4,0(r21)
 2002734:	2089c83a 	sub	r4,r4,r2
 2002738:	200ac980 	call	200ac98 <__floatsidf>
 200273c:	1009883a 	mov	r4,r2
 2002740:	180b883a 	mov	r5,r3
 2002744:	000d883a 	mov	r6,zero
 2002748:	01d01df4 	movhi	r7,16503
 200274c:	39e00004 	addi	r7,r7,-32768
 2002750:	20074d80 	call	20074d8 <fmod>
 2002754:	1009883a 	mov	r4,r2
 2002758:	180b883a 	mov	r5,r3
 200275c:	000d883a 	mov	r6,zero
 2002760:	01d019f4 	movhi	r7,16487
 2002764:	39e00004 	addi	r7,r7,-32768
 2002768:	1023883a 	mov	r17,r2
 200276c:	1825883a 	mov	r18,r3
 2002770:	200ab7c0 	call	200ab7c <__gtdf2>
 2002774:	8809883a 	mov	r4,r17
 2002778:	900b883a 	mov	r5,r18
 200277c:	000d883a 	mov	r6,zero
 2002780:	0087ea0e 	bge	zero,r2,200472c <calculate_pid+0x2090>
 2002784:	01d01df4 	movhi	r7,16503
 2002788:	39e00004 	addi	r7,r7,-32768
 200278c:	200a5cc0 	call	200a5cc <__subdf3>
 2002790:	1023883a 	mov	r17,r2
 2002794:	1825883a 	mov	r18,r3
 2002798:	880b883a 	mov	r5,r17
 200279c:	900d883a 	mov	r6,r18
 20027a0:	010080b4 	movhi	r4,514
 20027a4:	21093504 	addi	r4,r4,9428
 20027a8:	2005bd40 	call	2005bd4 <PID_Update>
 20027ac:	a9000417 	ldw	r4,16(r21)
 20027b0:	80800417 	ldw	r2,16(r16)
 20027b4:	2089c83a 	sub	r4,r4,r2
 20027b8:	200ac980 	call	200ac98 <__floatsidf>
 20027bc:	180d883a 	mov	r6,r3
 20027c0:	100b883a 	mov	r5,r2
 20027c4:	010080b4 	movhi	r4,514
 20027c8:	21094a04 	addi	r4,r4,9512
 20027cc:	2005bd40 	call	2005bd4 <PID_Update>
 20027d0:	010080b4 	movhi	r4,514
 20027d4:	21092004 	addi	r4,r4,9344
 20027d8:	2005d400 	call	2005d40 <PID_Output>
 20027dc:	010080b4 	movhi	r4,514
 20027e0:	21090b04 	addi	r4,r4,9260
 20027e4:	1029883a 	mov	r20,r2
 20027e8:	1827883a 	mov	r19,r3
 20027ec:	2005d400 	call	2005d40 <PID_Output>
 20027f0:	010080b4 	movhi	r4,514
 20027f4:	21094a04 	addi	r4,r4,9512
 20027f8:	d8800615 	stw	r2,24(sp)
 20027fc:	d8c00715 	stw	r3,28(sp)
 2002800:	2005d400 	call	2005d40 <PID_Output>
 2002804:	010080b4 	movhi	r4,514
 2002808:	21093504 	addi	r4,r4,9428
 200280c:	1025883a 	mov	r18,r2
 2002810:	1823883a 	mov	r17,r3
 2002814:	2005d400 	call	2005d40 <PID_Output>
 2002818:	a9000317 	ldw	r4,12(r21)
 200281c:	01400144 	movi	r5,5
 2002820:	182f883a 	mov	r23,r3
 2002824:	1039883a 	mov	fp,r2
 2002828:	200b0080 	call	200b008 <__mulsi3>
 200282c:	1009883a 	mov	r4,r2
 2002830:	200ac980 	call	200ac98 <__floatsidf>
 2002834:	e009883a 	mov	r4,fp
 2002838:	b80b883a 	mov	r5,r23
 200283c:	000d883a 	mov	r6,zero
 2002840:	01cff834 	movhi	r7,16352
 2002844:	102d883a 	mov	r22,r2
 2002848:	182b883a 	mov	r21,r3
 200284c:	200a62c0 	call	200a62c <__muldf3>
 2002850:	b00d883a 	mov	r6,r22
 2002854:	a80f883a 	mov	r7,r21
 2002858:	1009883a 	mov	r4,r2
 200285c:	180b883a 	mov	r5,r3
 2002860:	200a5cc0 	call	200a5cc <__subdf3>
 2002864:	e009883a 	mov	r4,fp
 2002868:	b80b883a 	mov	r5,r23
 200286c:	000d883a 	mov	r6,zero
 2002870:	01eff834 	movhi	r7,49120
 2002874:	d8800315 	stw	r2,12(sp)
 2002878:	d8c00415 	stw	r3,16(sp)
 200287c:	200a62c0 	call	200a62c <__muldf3>
 2002880:	b00d883a 	mov	r6,r22
 2002884:	a80f883a 	mov	r7,r21
 2002888:	1009883a 	mov	r4,r2
 200288c:	180b883a 	mov	r5,r3
 2002890:	200a5cc0 	call	200a5cc <__subdf3>
 2002894:	d9000317 	ldw	r4,12(sp)
 2002898:	d9400417 	ldw	r5,16(sp)
 200289c:	0191ebb4 	movhi	r6,18350
 20028a0:	31851ec4 	addi	r6,r6,5243
 20028a4:	01cfdd34 	movhi	r7,16244
 20028a8:	39deb844 	addi	r7,r7,31457
 20028ac:	182f883a 	mov	r23,r3
 20028b0:	d8800515 	stw	r2,20(sp)
 20028b4:	200a62c0 	call	200a62c <__muldf3>
 20028b8:	180b883a 	mov	r5,r3
 20028bc:	1009883a 	mov	r4,r2
 20028c0:	20062000 	call	2006200 <pwm_of_force>
 20028c4:	11008004 	addi	r4,r2,512
 20028c8:	200ac980 	call	200ac98 <__floatsidf>
 20028cc:	d9000517 	ldw	r4,20(sp)
 20028d0:	0191ebb4 	movhi	r6,18350
 20028d4:	31851ec4 	addi	r6,r6,5243
 20028d8:	01cfdd34 	movhi	r7,16244
 20028dc:	39deb844 	addi	r7,r7,31457
 20028e0:	b80b883a 	mov	r5,r23
 20028e4:	102d883a 	mov	r22,r2
 20028e8:	d8c00815 	stw	r3,32(sp)
 20028ec:	200a62c0 	call	200a62c <__muldf3>
 20028f0:	180b883a 	mov	r5,r3
 20028f4:	1009883a 	mov	r4,r2
 20028f8:	20062000 	call	2006200 <pwm_of_force>
 20028fc:	11008004 	addi	r4,r2,512
 2002900:	200ac980 	call	200ac98 <__floatsidf>
 2002904:	d9400817 	ldw	r5,32(sp)
 2002908:	b009883a 	mov	r4,r22
 200290c:	000d883a 	mov	r6,zero
 2002910:	000f883a 	mov	r7,zero
 2002914:	102b883a 	mov	r21,r2
 2002918:	1839883a 	mov	fp,r3
 200291c:	dd800b15 	stw	r22,44(sp)
 2002920:	d8800915 	stw	r2,36(sp)
 2002924:	d8c00a15 	stw	r3,40(sp)
 2002928:	200ab7c0 	call	200ab7c <__gtdf2>
 200292c:	00878e0e 	bge	zero,r2,2004768 <calculate_pid+0x20cc>
 2002930:	d9400817 	ldw	r5,32(sp)
 2002934:	b009883a 	mov	r4,r22
 2002938:	01a666b4 	movhi	r6,39322
 200293c:	31a66684 	addi	r6,r6,-26214
 2002940:	01d022b4 	movhi	r7,16522
 2002944:	39e66644 	addi	r7,r7,-26215
 2002948:	200ab7c0 	call	200ab7c <__gtdf2>
 200294c:	0084e316 	blt	zero,r2,2003cdc <calculate_pid+0x1640>
 2002950:	a809883a 	mov	r4,r21
 2002954:	e00b883a 	mov	r5,fp
 2002958:	000d883a 	mov	r6,zero
 200295c:	000f883a 	mov	r7,zero
 2002960:	200ab7c0 	call	200ab7c <__gtdf2>
 2002964:	00879f0e 	bge	zero,r2,20047e4 <calculate_pid+0x2148>
 2002968:	e00b883a 	mov	r5,fp
 200296c:	a809883a 	mov	r4,r21
 2002970:	01a666b4 	movhi	r6,39322
 2002974:	31a66684 	addi	r6,r6,-26214
 2002978:	01d022b4 	movhi	r7,16522
 200297c:	39e66644 	addi	r7,r7,-26215
 2002980:	200ab7c0 	call	200ab7c <__gtdf2>
 2002984:	0084d516 	blt	zero,r2,2003cdc <calculate_pid+0x1640>
 2002988:	80800117 	ldw	r2,4(r16)
 200298c:	10078b16 	blt	r2,zero,20047bc <calculate_pid+0x2120>
 2002990:	00c00784 	movi	r3,30
 2002994:	1880090e 	bge	r3,r2,20029bc <calculate_pid+0x320>
 2002998:	9009883a 	mov	r4,r18
 200299c:	880b883a 	mov	r5,r17
 20029a0:	01a666b4 	movhi	r6,39322
 20029a4:	31a66684 	addi	r6,r6,-26214
 20029a8:	01cffab4 	movhi	r7,16362
 20029ac:	39e66644 	addi	r7,r7,-26215
 20029b0:	200a62c0 	call	200a62c <__muldf3>
 20029b4:	1025883a 	mov	r18,r2
 20029b8:	1823883a 	mov	r17,r3
 20029bc:	d9000617 	ldw	r4,24(sp)
 20029c0:	d9400717 	ldw	r5,28(sp)
 20029c4:	01a666b4 	movhi	r6,39322
 20029c8:	31a66684 	addi	r6,r6,-26214
 20029cc:	01cff2b4 	movhi	r7,16330
 20029d0:	39e66644 	addi	r7,r7,-26215
 20029d4:	200a62c0 	call	200a62c <__muldf3>
 20029d8:	9009883a 	mov	r4,r18
 20029dc:	880b883a 	mov	r5,r17
 20029e0:	01a666b4 	movhi	r6,39322
 20029e4:	31a66684 	addi	r6,r6,-26214
 20029e8:	01cff2b4 	movhi	r7,16330
 20029ec:	39e66644 	addi	r7,r7,-26215
 20029f0:	102d883a 	mov	r22,r2
 20029f4:	182b883a 	mov	r21,r3
 20029f8:	200a62c0 	call	200a62c <__muldf3>
 20029fc:	a009883a 	mov	r4,r20
 2002a00:	980b883a 	mov	r5,r19
 2002a04:	000d883a 	mov	r6,zero
 2002a08:	01cff834 	movhi	r7,16352
 2002a0c:	1021883a 	mov	r16,r2
 2002a10:	182f883a 	mov	r23,r3
 2002a14:	200a62c0 	call	200a62c <__muldf3>
 2002a18:	b00d883a 	mov	r6,r22
 2002a1c:	a80f883a 	mov	r7,r21
 2002a20:	1009883a 	mov	r4,r2
 2002a24:	180b883a 	mov	r5,r3
 2002a28:	200a5780 	call	200a578 <__adddf3>
 2002a2c:	800d883a 	mov	r6,r16
 2002a30:	b80f883a 	mov	r7,r23
 2002a34:	1009883a 	mov	r4,r2
 2002a38:	180b883a 	mov	r5,r3
 2002a3c:	200a5780 	call	200a578 <__adddf3>
 2002a40:	a009883a 	mov	r4,r20
 2002a44:	980b883a 	mov	r5,r19
 2002a48:	000d883a 	mov	r6,zero
 2002a4c:	01eff834 	movhi	r7,49120
 2002a50:	1039883a 	mov	fp,r2
 2002a54:	d8c00015 	stw	r3,0(sp)
 2002a58:	200a62c0 	call	200a62c <__muldf3>
 2002a5c:	b009883a 	mov	r4,r22
 2002a60:	a80b883a 	mov	r5,r21
 2002a64:	100d883a 	mov	r6,r2
 2002a68:	180f883a 	mov	r7,r3
 2002a6c:	200a5780 	call	200a578 <__adddf3>
 2002a70:	8009883a 	mov	r4,r16
 2002a74:	b80b883a 	mov	r5,r23
 2002a78:	100d883a 	mov	r6,r2
 2002a7c:	180f883a 	mov	r7,r3
 2002a80:	200a5780 	call	200a578 <__adddf3>
 2002a84:	d9000617 	ldw	r4,24(sp)
 2002a88:	d9400717 	ldw	r5,28(sp)
 2002a8c:	000d883a 	mov	r6,zero
 2002a90:	01eff834 	movhi	r7,49120
 2002a94:	1029883a 	mov	r20,r2
 2002a98:	1827883a 	mov	r19,r3
 2002a9c:	200a62c0 	call	200a62c <__muldf3>
 2002aa0:	9009883a 	mov	r4,r18
 2002aa4:	880b883a 	mov	r5,r17
 2002aa8:	01a666b4 	movhi	r6,39322
 2002aac:	31a66684 	addi	r6,r6,-26214
 2002ab0:	01cff6b4 	movhi	r7,16346
 2002ab4:	39e66644 	addi	r7,r7,-26215
 2002ab8:	102b883a 	mov	r21,r2
 2002abc:	1821883a 	mov	r16,r3
 2002ac0:	200a62c0 	call	200a62c <__muldf3>
 2002ac4:	a809883a 	mov	r4,r21
 2002ac8:	800b883a 	mov	r5,r16
 2002acc:	100d883a 	mov	r6,r2
 2002ad0:	180f883a 	mov	r7,r3
 2002ad4:	200a5780 	call	200a578 <__adddf3>
 2002ad8:	d9400017 	ldw	r5,0(sp)
 2002adc:	0191ebb4 	movhi	r6,18350
 2002ae0:	31851ec4 	addi	r6,r6,5243
 2002ae4:	01cfdd34 	movhi	r7,16244
 2002ae8:	39deb844 	addi	r7,r7,31457
 2002aec:	e009883a 	mov	r4,fp
 2002af0:	1025883a 	mov	r18,r2
 2002af4:	1823883a 	mov	r17,r3
 2002af8:	200a62c0 	call	200a62c <__muldf3>
 2002afc:	180b883a 	mov	r5,r3
 2002b00:	1009883a 	mov	r4,r2
 2002b04:	20062000 	call	2006200 <pwm_of_force>
 2002b08:	11008004 	addi	r4,r2,512
 2002b0c:	200ac980 	call	200ac98 <__floatsidf>
 2002b10:	0191ebb4 	movhi	r6,18350
 2002b14:	31851ec4 	addi	r6,r6,5243
 2002b18:	01cfdd34 	movhi	r7,16244
 2002b1c:	39deb844 	addi	r7,r7,31457
 2002b20:	a009883a 	mov	r4,r20
 2002b24:	980b883a 	mov	r5,r19
 2002b28:	102f883a 	mov	r23,r2
 2002b2c:	1821883a 	mov	r16,r3
 2002b30:	200a62c0 	call	200a62c <__muldf3>
 2002b34:	180b883a 	mov	r5,r3
 2002b38:	1009883a 	mov	r4,r2
 2002b3c:	20062000 	call	2006200 <pwm_of_force>
 2002b40:	11008004 	addi	r4,r2,512
 2002b44:	200ac980 	call	200ac98 <__floatsidf>
 2002b48:	0191ebb4 	movhi	r6,18350
 2002b4c:	31851ec4 	addi	r6,r6,5243
 2002b50:	01cfdd34 	movhi	r7,16244
 2002b54:	39deb844 	addi	r7,r7,31457
 2002b58:	9009883a 	mov	r4,r18
 2002b5c:	880b883a 	mov	r5,r17
 2002b60:	102b883a 	mov	r21,r2
 2002b64:	182d883a 	mov	r22,r3
 2002b68:	200a62c0 	call	200a62c <__muldf3>
 2002b6c:	180b883a 	mov	r5,r3
 2002b70:	1009883a 	mov	r4,r2
 2002b74:	20062000 	call	2006200 <pwm_of_force>
 2002b78:	11008004 	addi	r4,r2,512
 2002b7c:	200ac980 	call	200ac98 <__floatsidf>
 2002b80:	b809883a 	mov	r4,r23
 2002b84:	800b883a 	mov	r5,r16
 2002b88:	000d883a 	mov	r6,zero
 2002b8c:	000f883a 	mov	r7,zero
 2002b90:	d8800115 	stw	r2,4(sp)
 2002b94:	d8c00215 	stw	r3,8(sp)
 2002b98:	ddc00615 	stw	r23,24(sp)
 2002b9c:	dd400715 	stw	r21,28(sp)
 2002ba0:	dd800315 	stw	r22,12(sp)
 2002ba4:	d8800415 	stw	r2,16(sp)
 2002ba8:	d8c00515 	stw	r3,20(sp)
 2002bac:	200ab7c0 	call	200ab7c <__gtdf2>
 2002bb0:	0086eb0e 	bge	zero,r2,2004760 <calculate_pid+0x20c4>
 2002bb4:	800b883a 	mov	r5,r16
 2002bb8:	b809883a 	mov	r4,r23
 2002bbc:	01a666b4 	movhi	r6,39322
 2002bc0:	31a66684 	addi	r6,r6,-26214
 2002bc4:	01d022b4 	movhi	r7,16522
 2002bc8:	39e66644 	addi	r7,r7,-26215
 2002bcc:	200ab7c0 	call	200ab7c <__gtdf2>
 2002bd0:	00801c16 	blt	zero,r2,2002c44 <calculate_pid+0x5a8>
 2002bd4:	a809883a 	mov	r4,r21
 2002bd8:	b00b883a 	mov	r5,r22
 2002bdc:	000d883a 	mov	r6,zero
 2002be0:	000f883a 	mov	r7,zero
 2002be4:	200ab7c0 	call	200ab7c <__gtdf2>
 2002be8:	0087200e 	bge	zero,r2,200486c <calculate_pid+0x21d0>
 2002bec:	b00b883a 	mov	r5,r22
 2002bf0:	a809883a 	mov	r4,r21
 2002bf4:	01a666b4 	movhi	r6,39322
 2002bf8:	31a66684 	addi	r6,r6,-26214
 2002bfc:	01d022b4 	movhi	r7,16522
 2002c00:	39e66644 	addi	r7,r7,-26215
 2002c04:	200ab7c0 	call	200ab7c <__gtdf2>
 2002c08:	00800e16 	blt	zero,r2,2002c44 <calculate_pid+0x5a8>
 2002c0c:	d9000117 	ldw	r4,4(sp)
 2002c10:	d9400217 	ldw	r5,8(sp)
 2002c14:	000d883a 	mov	r6,zero
 2002c18:	000f883a 	mov	r7,zero
 2002c1c:	200ab7c0 	call	200ab7c <__gtdf2>
 2002c20:	0086f20e 	bge	zero,r2,20047ec <calculate_pid+0x2150>
 2002c24:	d9400217 	ldw	r5,8(sp)
 2002c28:	d9000117 	ldw	r4,4(sp)
 2002c2c:	01a666b4 	movhi	r6,39322
 2002c30:	31a66684 	addi	r6,r6,-26214
 2002c34:	01d022b4 	movhi	r7,16522
 2002c38:	39e66644 	addi	r7,r7,-26215
 2002c3c:	200ab7c0 	call	200ab7c <__gtdf2>
 2002c40:	0083f50e 	bge	zero,r2,2003c18 <calculate_pid+0x157c>
 2002c44:	d9400017 	ldw	r5,0(sp)
 2002c48:	e009883a 	mov	r4,fp
 2002c4c:	018cccf4 	movhi	r6,13107
 2002c50:	318cccc4 	addi	r6,r6,13107
 2002c54:	01cffaf4 	movhi	r7,16363
 2002c58:	39ccccc4 	addi	r7,r7,13107
 2002c5c:	200a62c0 	call	200a62c <__muldf3>
 2002c60:	a009883a 	mov	r4,r20
 2002c64:	980b883a 	mov	r5,r19
 2002c68:	018cccf4 	movhi	r6,13107
 2002c6c:	318cccc4 	addi	r6,r6,13107
 2002c70:	01cffaf4 	movhi	r7,16363
 2002c74:	39ccccc4 	addi	r7,r7,13107
 2002c78:	102d883a 	mov	r22,r2
 2002c7c:	182b883a 	mov	r21,r3
 2002c80:	200a62c0 	call	200a62c <__muldf3>
 2002c84:	9009883a 	mov	r4,r18
 2002c88:	880b883a 	mov	r5,r17
 2002c8c:	018cccf4 	movhi	r6,13107
 2002c90:	318cccc4 	addi	r6,r6,13107
 2002c94:	01cffaf4 	movhi	r7,16363
 2002c98:	39ccccc4 	addi	r7,r7,13107
 2002c9c:	1029883a 	mov	r20,r2
 2002ca0:	1827883a 	mov	r19,r3
 2002ca4:	200a62c0 	call	200a62c <__muldf3>
 2002ca8:	0191ebb4 	movhi	r6,18350
 2002cac:	31851ec4 	addi	r6,r6,5243
 2002cb0:	01cfdd34 	movhi	r7,16244
 2002cb4:	39deb844 	addi	r7,r7,31457
 2002cb8:	b009883a 	mov	r4,r22
 2002cbc:	a80b883a 	mov	r5,r21
 2002cc0:	1025883a 	mov	r18,r2
 2002cc4:	d8c00015 	stw	r3,0(sp)
 2002cc8:	200a62c0 	call	200a62c <__muldf3>
 2002ccc:	180b883a 	mov	r5,r3
 2002cd0:	1009883a 	mov	r4,r2
 2002cd4:	20062000 	call	2006200 <pwm_of_force>
 2002cd8:	11008004 	addi	r4,r2,512
 2002cdc:	200ac980 	call	200ac98 <__floatsidf>
 2002ce0:	0191ebb4 	movhi	r6,18350
 2002ce4:	31851ec4 	addi	r6,r6,5243
 2002ce8:	01cfdd34 	movhi	r7,16244
 2002cec:	39deb844 	addi	r7,r7,31457
 2002cf0:	a009883a 	mov	r4,r20
 2002cf4:	980b883a 	mov	r5,r19
 2002cf8:	1023883a 	mov	r17,r2
 2002cfc:	1821883a 	mov	r16,r3
 2002d00:	200a62c0 	call	200a62c <__muldf3>
 2002d04:	180b883a 	mov	r5,r3
 2002d08:	1009883a 	mov	r4,r2
 2002d0c:	20062000 	call	2006200 <pwm_of_force>
 2002d10:	11008004 	addi	r4,r2,512
 2002d14:	200ac980 	call	200ac98 <__floatsidf>
 2002d18:	d9400017 	ldw	r5,0(sp)
 2002d1c:	0191ebb4 	movhi	r6,18350
 2002d20:	31851ec4 	addi	r6,r6,5243
 2002d24:	01cfdd34 	movhi	r7,16244
 2002d28:	39deb844 	addi	r7,r7,31457
 2002d2c:	9009883a 	mov	r4,r18
 2002d30:	1039883a 	mov	fp,r2
 2002d34:	182f883a 	mov	r23,r3
 2002d38:	200a62c0 	call	200a62c <__muldf3>
 2002d3c:	180b883a 	mov	r5,r3
 2002d40:	1009883a 	mov	r4,r2
 2002d44:	20062000 	call	2006200 <pwm_of_force>
 2002d48:	11008004 	addi	r4,r2,512
 2002d4c:	200ac980 	call	200ac98 <__floatsidf>
 2002d50:	8809883a 	mov	r4,r17
 2002d54:	800b883a 	mov	r5,r16
 2002d58:	000d883a 	mov	r6,zero
 2002d5c:	000f883a 	mov	r7,zero
 2002d60:	d8800115 	stw	r2,4(sp)
 2002d64:	d8c00215 	stw	r3,8(sp)
 2002d68:	dc400615 	stw	r17,24(sp)
 2002d6c:	df000715 	stw	fp,28(sp)
 2002d70:	ddc00315 	stw	r23,12(sp)
 2002d74:	d8800415 	stw	r2,16(sp)
 2002d78:	d8c00515 	stw	r3,20(sp)
 2002d7c:	200ab7c0 	call	200ab7c <__gtdf2>
 2002d80:	00867c0e 	bge	zero,r2,2004774 <calculate_pid+0x20d8>
 2002d84:	800b883a 	mov	r5,r16
 2002d88:	8809883a 	mov	r4,r17
 2002d8c:	01a666b4 	movhi	r6,39322
 2002d90:	31a66684 	addi	r6,r6,-26214
 2002d94:	01d022b4 	movhi	r7,16522
 2002d98:	39e66644 	addi	r7,r7,-26215
 2002d9c:	200ab7c0 	call	200ab7c <__gtdf2>
 2002da0:	00801c16 	blt	zero,r2,2002e14 <calculate_pid+0x778>
 2002da4:	e009883a 	mov	r4,fp
 2002da8:	b80b883a 	mov	r5,r23
 2002dac:	000d883a 	mov	r6,zero
 2002db0:	000f883a 	mov	r7,zero
 2002db4:	200ab7c0 	call	200ab7c <__gtdf2>
 2002db8:	0086ae0e 	bge	zero,r2,2004874 <calculate_pid+0x21d8>
 2002dbc:	b80b883a 	mov	r5,r23
 2002dc0:	e009883a 	mov	r4,fp
 2002dc4:	01a666b4 	movhi	r6,39322
 2002dc8:	31a66684 	addi	r6,r6,-26214
 2002dcc:	01d022b4 	movhi	r7,16522
 2002dd0:	39e66644 	addi	r7,r7,-26215
 2002dd4:	200ab7c0 	call	200ab7c <__gtdf2>
 2002dd8:	00800e16 	blt	zero,r2,2002e14 <calculate_pid+0x778>
 2002ddc:	d9000117 	ldw	r4,4(sp)
 2002de0:	d9400217 	ldw	r5,8(sp)
 2002de4:	000d883a 	mov	r6,zero
 2002de8:	000f883a 	mov	r7,zero
 2002dec:	200ab7c0 	call	200ab7c <__gtdf2>
 2002df0:	0086810e 	bge	zero,r2,20047f8 <calculate_pid+0x215c>
 2002df4:	d9400217 	ldw	r5,8(sp)
 2002df8:	d9000117 	ldw	r4,4(sp)
 2002dfc:	01a666b4 	movhi	r6,39322
 2002e00:	31a66684 	addi	r6,r6,-26214
 2002e04:	01d022b4 	movhi	r7,16522
 2002e08:	39e66644 	addi	r7,r7,-26215
 2002e0c:	200ab7c0 	call	200ab7c <__gtdf2>
 2002e10:	0083810e 	bge	zero,r2,2003c18 <calculate_pid+0x157c>
 2002e14:	b009883a 	mov	r4,r22
 2002e18:	a80b883a 	mov	r5,r21
 2002e1c:	018cccf4 	movhi	r6,13107
 2002e20:	318cccc4 	addi	r6,r6,13107
 2002e24:	01cffaf4 	movhi	r7,16363
 2002e28:	39ccccc4 	addi	r7,r7,13107
 2002e2c:	200a62c0 	call	200a62c <__muldf3>
 2002e30:	a009883a 	mov	r4,r20
 2002e34:	980b883a 	mov	r5,r19
 2002e38:	018cccf4 	movhi	r6,13107
 2002e3c:	318cccc4 	addi	r6,r6,13107
 2002e40:	01cffaf4 	movhi	r7,16363
 2002e44:	39ccccc4 	addi	r7,r7,13107
 2002e48:	102d883a 	mov	r22,r2
 2002e4c:	182b883a 	mov	r21,r3
 2002e50:	200a62c0 	call	200a62c <__muldf3>
 2002e54:	d9400017 	ldw	r5,0(sp)
 2002e58:	9009883a 	mov	r4,r18
 2002e5c:	018cccf4 	movhi	r6,13107
 2002e60:	318cccc4 	addi	r6,r6,13107
 2002e64:	01cffaf4 	movhi	r7,16363
 2002e68:	39ccccc4 	addi	r7,r7,13107
 2002e6c:	1029883a 	mov	r20,r2
 2002e70:	1827883a 	mov	r19,r3
 2002e74:	200a62c0 	call	200a62c <__muldf3>
 2002e78:	0191ebb4 	movhi	r6,18350
 2002e7c:	31851ec4 	addi	r6,r6,5243
 2002e80:	01cfdd34 	movhi	r7,16244
 2002e84:	39deb844 	addi	r7,r7,31457
 2002e88:	b009883a 	mov	r4,r22
 2002e8c:	a80b883a 	mov	r5,r21
 2002e90:	1025883a 	mov	r18,r2
 2002e94:	d8c00015 	stw	r3,0(sp)
 2002e98:	200a62c0 	call	200a62c <__muldf3>
 2002e9c:	180b883a 	mov	r5,r3
 2002ea0:	1009883a 	mov	r4,r2
 2002ea4:	20062000 	call	2006200 <pwm_of_force>
 2002ea8:	11008004 	addi	r4,r2,512
 2002eac:	200ac980 	call	200ac98 <__floatsidf>
 2002eb0:	0191ebb4 	movhi	r6,18350
 2002eb4:	31851ec4 	addi	r6,r6,5243
 2002eb8:	01cfdd34 	movhi	r7,16244
 2002ebc:	39deb844 	addi	r7,r7,31457
 2002ec0:	a009883a 	mov	r4,r20
 2002ec4:	980b883a 	mov	r5,r19
 2002ec8:	1023883a 	mov	r17,r2
 2002ecc:	1821883a 	mov	r16,r3
 2002ed0:	200a62c0 	call	200a62c <__muldf3>
 2002ed4:	180b883a 	mov	r5,r3
 2002ed8:	1009883a 	mov	r4,r2
 2002edc:	20062000 	call	2006200 <pwm_of_force>
 2002ee0:	11008004 	addi	r4,r2,512
 2002ee4:	200ac980 	call	200ac98 <__floatsidf>
 2002ee8:	d9400017 	ldw	r5,0(sp)
 2002eec:	0191ebb4 	movhi	r6,18350
 2002ef0:	31851ec4 	addi	r6,r6,5243
 2002ef4:	01cfdd34 	movhi	r7,16244
 2002ef8:	39deb844 	addi	r7,r7,31457
 2002efc:	9009883a 	mov	r4,r18
 2002f00:	1039883a 	mov	fp,r2
 2002f04:	182f883a 	mov	r23,r3
 2002f08:	200a62c0 	call	200a62c <__muldf3>
 2002f0c:	180b883a 	mov	r5,r3
 2002f10:	1009883a 	mov	r4,r2
 2002f14:	20062000 	call	2006200 <pwm_of_force>
 2002f18:	11008004 	addi	r4,r2,512
 2002f1c:	200ac980 	call	200ac98 <__floatsidf>
 2002f20:	8809883a 	mov	r4,r17
 2002f24:	800b883a 	mov	r5,r16
 2002f28:	000d883a 	mov	r6,zero
 2002f2c:	000f883a 	mov	r7,zero
 2002f30:	d8800115 	stw	r2,4(sp)
 2002f34:	d8c00215 	stw	r3,8(sp)
 2002f38:	dc400615 	stw	r17,24(sp)
 2002f3c:	df000715 	stw	fp,28(sp)
 2002f40:	ddc00315 	stw	r23,12(sp)
 2002f44:	d8800415 	stw	r2,16(sp)
 2002f48:	d8c00515 	stw	r3,20(sp)
 2002f4c:	200ab7c0 	call	200ab7c <__gtdf2>
 2002f50:	00860a0e 	bge	zero,r2,200477c <calculate_pid+0x20e0>
 2002f54:	800b883a 	mov	r5,r16
 2002f58:	8809883a 	mov	r4,r17
 2002f5c:	01a666b4 	movhi	r6,39322
 2002f60:	31a66684 	addi	r6,r6,-26214
 2002f64:	01d022b4 	movhi	r7,16522
 2002f68:	39e66644 	addi	r7,r7,-26215
 2002f6c:	200ab7c0 	call	200ab7c <__gtdf2>
 2002f70:	00801c16 	blt	zero,r2,2002fe4 <calculate_pid+0x948>
 2002f74:	e009883a 	mov	r4,fp
 2002f78:	b80b883a 	mov	r5,r23
 2002f7c:	000d883a 	mov	r6,zero
 2002f80:	000f883a 	mov	r7,zero
 2002f84:	200ab7c0 	call	200ab7c <__gtdf2>
 2002f88:	00863c0e 	bge	zero,r2,200487c <calculate_pid+0x21e0>
 2002f8c:	b80b883a 	mov	r5,r23
 2002f90:	e009883a 	mov	r4,fp
 2002f94:	01a666b4 	movhi	r6,39322
 2002f98:	31a66684 	addi	r6,r6,-26214
 2002f9c:	01d022b4 	movhi	r7,16522
 2002fa0:	39e66644 	addi	r7,r7,-26215
 2002fa4:	200ab7c0 	call	200ab7c <__gtdf2>
 2002fa8:	00800e16 	blt	zero,r2,2002fe4 <calculate_pid+0x948>
 2002fac:	d9000117 	ldw	r4,4(sp)
 2002fb0:	d9400217 	ldw	r5,8(sp)
 2002fb4:	000d883a 	mov	r6,zero
 2002fb8:	000f883a 	mov	r7,zero
 2002fbc:	200ab7c0 	call	200ab7c <__gtdf2>
 2002fc0:	0086100e 	bge	zero,r2,2004804 <calculate_pid+0x2168>
 2002fc4:	d9400217 	ldw	r5,8(sp)
 2002fc8:	d9000117 	ldw	r4,4(sp)
 2002fcc:	01a666b4 	movhi	r6,39322
 2002fd0:	31a66684 	addi	r6,r6,-26214
 2002fd4:	01d022b4 	movhi	r7,16522
 2002fd8:	39e66644 	addi	r7,r7,-26215
 2002fdc:	200ab7c0 	call	200ab7c <__gtdf2>
 2002fe0:	00830d0e 	bge	zero,r2,2003c18 <calculate_pid+0x157c>
 2002fe4:	b009883a 	mov	r4,r22
 2002fe8:	a80b883a 	mov	r5,r21
 2002fec:	018cccf4 	movhi	r6,13107
 2002ff0:	318cccc4 	addi	r6,r6,13107
 2002ff4:	01cffaf4 	movhi	r7,16363
 2002ff8:	39ccccc4 	addi	r7,r7,13107
 2002ffc:	200a62c0 	call	200a62c <__muldf3>
 2003000:	a009883a 	mov	r4,r20
 2003004:	980b883a 	mov	r5,r19
 2003008:	018cccf4 	movhi	r6,13107
 200300c:	318cccc4 	addi	r6,r6,13107
 2003010:	01cffaf4 	movhi	r7,16363
 2003014:	39ccccc4 	addi	r7,r7,13107
 2003018:	102d883a 	mov	r22,r2
 200301c:	182b883a 	mov	r21,r3
 2003020:	200a62c0 	call	200a62c <__muldf3>
 2003024:	d9400017 	ldw	r5,0(sp)
 2003028:	9009883a 	mov	r4,r18
 200302c:	018cccf4 	movhi	r6,13107
 2003030:	318cccc4 	addi	r6,r6,13107
 2003034:	01cffaf4 	movhi	r7,16363
 2003038:	39ccccc4 	addi	r7,r7,13107
 200303c:	1029883a 	mov	r20,r2
 2003040:	1827883a 	mov	r19,r3
 2003044:	200a62c0 	call	200a62c <__muldf3>
 2003048:	0191ebb4 	movhi	r6,18350
 200304c:	31851ec4 	addi	r6,r6,5243
 2003050:	01cfdd34 	movhi	r7,16244
 2003054:	39deb844 	addi	r7,r7,31457
 2003058:	b009883a 	mov	r4,r22
 200305c:	a80b883a 	mov	r5,r21
 2003060:	1025883a 	mov	r18,r2
 2003064:	1823883a 	mov	r17,r3
 2003068:	200a62c0 	call	200a62c <__muldf3>
 200306c:	180b883a 	mov	r5,r3
 2003070:	1009883a 	mov	r4,r2
 2003074:	20062000 	call	2006200 <pwm_of_force>
 2003078:	11008004 	addi	r4,r2,512
 200307c:	200ac980 	call	200ac98 <__floatsidf>
 2003080:	0191ebb4 	movhi	r6,18350
 2003084:	31851ec4 	addi	r6,r6,5243
 2003088:	01cfdd34 	movhi	r7,16244
 200308c:	39deb844 	addi	r7,r7,31457
 2003090:	a009883a 	mov	r4,r20
 2003094:	980b883a 	mov	r5,r19
 2003098:	1039883a 	mov	fp,r2
 200309c:	1821883a 	mov	r16,r3
 20030a0:	200a62c0 	call	200a62c <__muldf3>
 20030a4:	180b883a 	mov	r5,r3
 20030a8:	1009883a 	mov	r4,r2
 20030ac:	20062000 	call	2006200 <pwm_of_force>
 20030b0:	11008004 	addi	r4,r2,512
 20030b4:	200ac980 	call	200ac98 <__floatsidf>
 20030b8:	0191ebb4 	movhi	r6,18350
 20030bc:	31851ec4 	addi	r6,r6,5243
 20030c0:	01cfdd34 	movhi	r7,16244
 20030c4:	39deb844 	addi	r7,r7,31457
 20030c8:	9009883a 	mov	r4,r18
 20030cc:	880b883a 	mov	r5,r17
 20030d0:	102f883a 	mov	r23,r2
 20030d4:	d8c00015 	stw	r3,0(sp)
 20030d8:	200a62c0 	call	200a62c <__muldf3>
 20030dc:	180b883a 	mov	r5,r3
 20030e0:	1009883a 	mov	r4,r2
 20030e4:	20062000 	call	2006200 <pwm_of_force>
 20030e8:	11008004 	addi	r4,r2,512
 20030ec:	200ac980 	call	200ac98 <__floatsidf>
 20030f0:	d8800115 	stw	r2,4(sp)
 20030f4:	d8800017 	ldw	r2,0(sp)
 20030f8:	e009883a 	mov	r4,fp
 20030fc:	800b883a 	mov	r5,r16
 2003100:	d8800315 	stw	r2,12(sp)
 2003104:	d8800117 	ldw	r2,4(sp)
 2003108:	000d883a 	mov	r6,zero
 200310c:	000f883a 	mov	r7,zero
 2003110:	d8c00215 	stw	r3,8(sp)
 2003114:	df000615 	stw	fp,24(sp)
 2003118:	ddc00715 	stw	r23,28(sp)
 200311c:	d8800415 	stw	r2,16(sp)
 2003120:	d8c00515 	stw	r3,20(sp)
 2003124:	200ab7c0 	call	200ab7c <__gtdf2>
 2003128:	0085960e 	bge	zero,r2,2004784 <calculate_pid+0x20e8>
 200312c:	800b883a 	mov	r5,r16
 2003130:	e009883a 	mov	r4,fp
 2003134:	01a666b4 	movhi	r6,39322
 2003138:	31a66684 	addi	r6,r6,-26214
 200313c:	01d022b4 	movhi	r7,16522
 2003140:	39e66644 	addi	r7,r7,-26215
 2003144:	200ab7c0 	call	200ab7c <__gtdf2>
 2003148:	00801c16 	blt	zero,r2,20031bc <calculate_pid+0xb20>
 200314c:	d9400017 	ldw	r5,0(sp)
 2003150:	b809883a 	mov	r4,r23
 2003154:	000d883a 	mov	r6,zero
 2003158:	000f883a 	mov	r7,zero
 200315c:	200ab7c0 	call	200ab7c <__gtdf2>
 2003160:	0085c80e 	bge	zero,r2,2004884 <calculate_pid+0x21e8>
 2003164:	d9400017 	ldw	r5,0(sp)
 2003168:	b809883a 	mov	r4,r23
 200316c:	01a666b4 	movhi	r6,39322
 2003170:	31a66684 	addi	r6,r6,-26214
 2003174:	01d022b4 	movhi	r7,16522
 2003178:	39e66644 	addi	r7,r7,-26215
 200317c:	200ab7c0 	call	200ab7c <__gtdf2>
 2003180:	00800e16 	blt	zero,r2,20031bc <calculate_pid+0xb20>
 2003184:	d9000117 	ldw	r4,4(sp)
 2003188:	d9400217 	ldw	r5,8(sp)
 200318c:	000d883a 	mov	r6,zero
 2003190:	000f883a 	mov	r7,zero
 2003194:	200ab7c0 	call	200ab7c <__gtdf2>
 2003198:	00859d0e 	bge	zero,r2,2004810 <calculate_pid+0x2174>
 200319c:	d9400217 	ldw	r5,8(sp)
 20031a0:	d9000117 	ldw	r4,4(sp)
 20031a4:	01a666b4 	movhi	r6,39322
 20031a8:	31a66684 	addi	r6,r6,-26214
 20031ac:	01d022b4 	movhi	r7,16522
 20031b0:	39e66644 	addi	r7,r7,-26215
 20031b4:	200ab7c0 	call	200ab7c <__gtdf2>
 20031b8:	0082970e 	bge	zero,r2,2003c18 <calculate_pid+0x157c>
 20031bc:	b009883a 	mov	r4,r22
 20031c0:	a80b883a 	mov	r5,r21
 20031c4:	018cccf4 	movhi	r6,13107
 20031c8:	318cccc4 	addi	r6,r6,13107
 20031cc:	01cffaf4 	movhi	r7,16363
 20031d0:	39ccccc4 	addi	r7,r7,13107
 20031d4:	200a62c0 	call	200a62c <__muldf3>
 20031d8:	a009883a 	mov	r4,r20
 20031dc:	980b883a 	mov	r5,r19
 20031e0:	018cccf4 	movhi	r6,13107
 20031e4:	318cccc4 	addi	r6,r6,13107
 20031e8:	01cffaf4 	movhi	r7,16363
 20031ec:	39ccccc4 	addi	r7,r7,13107
 20031f0:	102d883a 	mov	r22,r2
 20031f4:	182b883a 	mov	r21,r3
 20031f8:	200a62c0 	call	200a62c <__muldf3>
 20031fc:	9009883a 	mov	r4,r18
 2003200:	880b883a 	mov	r5,r17
 2003204:	018cccf4 	movhi	r6,13107
 2003208:	318cccc4 	addi	r6,r6,13107
 200320c:	01cffaf4 	movhi	r7,16363
 2003210:	39ccccc4 	addi	r7,r7,13107
 2003214:	1029883a 	mov	r20,r2
 2003218:	1827883a 	mov	r19,r3
 200321c:	200a62c0 	call	200a62c <__muldf3>
 2003220:	0191ebb4 	movhi	r6,18350
 2003224:	31851ec4 	addi	r6,r6,5243
 2003228:	01cfdd34 	movhi	r7,16244
 200322c:	39deb844 	addi	r7,r7,31457
 2003230:	b009883a 	mov	r4,r22
 2003234:	a80b883a 	mov	r5,r21
 2003238:	1025883a 	mov	r18,r2
 200323c:	d8c00015 	stw	r3,0(sp)
 2003240:	200a62c0 	call	200a62c <__muldf3>
 2003244:	180b883a 	mov	r5,r3
 2003248:	1009883a 	mov	r4,r2
 200324c:	20062000 	call	2006200 <pwm_of_force>
 2003250:	11008004 	addi	r4,r2,512
 2003254:	200ac980 	call	200ac98 <__floatsidf>
 2003258:	0191ebb4 	movhi	r6,18350
 200325c:	31851ec4 	addi	r6,r6,5243
 2003260:	01cfdd34 	movhi	r7,16244
 2003264:	39deb844 	addi	r7,r7,31457
 2003268:	a009883a 	mov	r4,r20
 200326c:	980b883a 	mov	r5,r19
 2003270:	1023883a 	mov	r17,r2
 2003274:	1821883a 	mov	r16,r3
 2003278:	200a62c0 	call	200a62c <__muldf3>
 200327c:	180b883a 	mov	r5,r3
 2003280:	1009883a 	mov	r4,r2
 2003284:	20062000 	call	2006200 <pwm_of_force>
 2003288:	11008004 	addi	r4,r2,512
 200328c:	200ac980 	call	200ac98 <__floatsidf>
 2003290:	d9400017 	ldw	r5,0(sp)
 2003294:	0191ebb4 	movhi	r6,18350
 2003298:	31851ec4 	addi	r6,r6,5243
 200329c:	01cfdd34 	movhi	r7,16244
 20032a0:	39deb844 	addi	r7,r7,31457
 20032a4:	9009883a 	mov	r4,r18
 20032a8:	102f883a 	mov	r23,r2
 20032ac:	1839883a 	mov	fp,r3
 20032b0:	200a62c0 	call	200a62c <__muldf3>
 20032b4:	180b883a 	mov	r5,r3
 20032b8:	1009883a 	mov	r4,r2
 20032bc:	20062000 	call	2006200 <pwm_of_force>
 20032c0:	11008004 	addi	r4,r2,512
 20032c4:	200ac980 	call	200ac98 <__floatsidf>
 20032c8:	8809883a 	mov	r4,r17
 20032cc:	800b883a 	mov	r5,r16
 20032d0:	000d883a 	mov	r6,zero
 20032d4:	000f883a 	mov	r7,zero
 20032d8:	d8800115 	stw	r2,4(sp)
 20032dc:	d8c00215 	stw	r3,8(sp)
 20032e0:	dc400615 	stw	r17,24(sp)
 20032e4:	ddc00715 	stw	r23,28(sp)
 20032e8:	df000315 	stw	fp,12(sp)
 20032ec:	d8800415 	stw	r2,16(sp)
 20032f0:	d8c00515 	stw	r3,20(sp)
 20032f4:	200ab7c0 	call	200ab7c <__gtdf2>
 20032f8:	0085240e 	bge	zero,r2,200478c <calculate_pid+0x20f0>
 20032fc:	800b883a 	mov	r5,r16
 2003300:	8809883a 	mov	r4,r17
 2003304:	01a666b4 	movhi	r6,39322
 2003308:	31a66684 	addi	r6,r6,-26214
 200330c:	01d022b4 	movhi	r7,16522
 2003310:	39e66644 	addi	r7,r7,-26215
 2003314:	200ab7c0 	call	200ab7c <__gtdf2>
 2003318:	00801c16 	blt	zero,r2,200338c <calculate_pid+0xcf0>
 200331c:	b809883a 	mov	r4,r23
 2003320:	e00b883a 	mov	r5,fp
 2003324:	000d883a 	mov	r6,zero
 2003328:	000f883a 	mov	r7,zero
 200332c:	200ab7c0 	call	200ab7c <__gtdf2>
 2003330:	0085570e 	bge	zero,r2,2004890 <calculate_pid+0x21f4>
 2003334:	e00b883a 	mov	r5,fp
 2003338:	b809883a 	mov	r4,r23
 200333c:	01a666b4 	movhi	r6,39322
 2003340:	31a66684 	addi	r6,r6,-26214
 2003344:	01d022b4 	movhi	r7,16522
 2003348:	39e66644 	addi	r7,r7,-26215
 200334c:	200ab7c0 	call	200ab7c <__gtdf2>
 2003350:	00800e16 	blt	zero,r2,200338c <calculate_pid+0xcf0>
 2003354:	d9000117 	ldw	r4,4(sp)
 2003358:	d9400217 	ldw	r5,8(sp)
 200335c:	000d883a 	mov	r6,zero
 2003360:	000f883a 	mov	r7,zero
 2003364:	200ab7c0 	call	200ab7c <__gtdf2>
 2003368:	00852c0e 	bge	zero,r2,200481c <calculate_pid+0x2180>
 200336c:	d9400217 	ldw	r5,8(sp)
 2003370:	d9000117 	ldw	r4,4(sp)
 2003374:	01a666b4 	movhi	r6,39322
 2003378:	31a66684 	addi	r6,r6,-26214
 200337c:	01d022b4 	movhi	r7,16522
 2003380:	39e66644 	addi	r7,r7,-26215
 2003384:	200ab7c0 	call	200ab7c <__gtdf2>
 2003388:	0082230e 	bge	zero,r2,2003c18 <calculate_pid+0x157c>
 200338c:	b009883a 	mov	r4,r22
 2003390:	a80b883a 	mov	r5,r21
 2003394:	018cccf4 	movhi	r6,13107
 2003398:	318cccc4 	addi	r6,r6,13107
 200339c:	01cffaf4 	movhi	r7,16363
 20033a0:	39ccccc4 	addi	r7,r7,13107
 20033a4:	200a62c0 	call	200a62c <__muldf3>
 20033a8:	a009883a 	mov	r4,r20
 20033ac:	980b883a 	mov	r5,r19
 20033b0:	018cccf4 	movhi	r6,13107
 20033b4:	318cccc4 	addi	r6,r6,13107
 20033b8:	01cffaf4 	movhi	r7,16363
 20033bc:	39ccccc4 	addi	r7,r7,13107
 20033c0:	102d883a 	mov	r22,r2
 20033c4:	182b883a 	mov	r21,r3
 20033c8:	200a62c0 	call	200a62c <__muldf3>
 20033cc:	d9400017 	ldw	r5,0(sp)
 20033d0:	9009883a 	mov	r4,r18
 20033d4:	018cccf4 	movhi	r6,13107
 20033d8:	318cccc4 	addi	r6,r6,13107
 20033dc:	01cffaf4 	movhi	r7,16363
 20033e0:	39ccccc4 	addi	r7,r7,13107
 20033e4:	1029883a 	mov	r20,r2
 20033e8:	1827883a 	mov	r19,r3
 20033ec:	200a62c0 	call	200a62c <__muldf3>
 20033f0:	0191ebb4 	movhi	r6,18350
 20033f4:	31851ec4 	addi	r6,r6,5243
 20033f8:	01cfdd34 	movhi	r7,16244
 20033fc:	39deb844 	addi	r7,r7,31457
 2003400:	b009883a 	mov	r4,r22
 2003404:	a80b883a 	mov	r5,r21
 2003408:	1025883a 	mov	r18,r2
 200340c:	d8c00015 	stw	r3,0(sp)
 2003410:	200a62c0 	call	200a62c <__muldf3>
 2003414:	180b883a 	mov	r5,r3
 2003418:	1009883a 	mov	r4,r2
 200341c:	20062000 	call	2006200 <pwm_of_force>
 2003420:	11008004 	addi	r4,r2,512
 2003424:	200ac980 	call	200ac98 <__floatsidf>
 2003428:	0191ebb4 	movhi	r6,18350
 200342c:	31851ec4 	addi	r6,r6,5243
 2003430:	01cfdd34 	movhi	r7,16244
 2003434:	39deb844 	addi	r7,r7,31457
 2003438:	a009883a 	mov	r4,r20
 200343c:	980b883a 	mov	r5,r19
 2003440:	1023883a 	mov	r17,r2
 2003444:	1821883a 	mov	r16,r3
 2003448:	200a62c0 	call	200a62c <__muldf3>
 200344c:	180b883a 	mov	r5,r3
 2003450:	1009883a 	mov	r4,r2
 2003454:	20062000 	call	2006200 <pwm_of_force>
 2003458:	11008004 	addi	r4,r2,512
 200345c:	200ac980 	call	200ac98 <__floatsidf>
 2003460:	d9400017 	ldw	r5,0(sp)
 2003464:	0191ebb4 	movhi	r6,18350
 2003468:	31851ec4 	addi	r6,r6,5243
 200346c:	01cfdd34 	movhi	r7,16244
 2003470:	39deb844 	addi	r7,r7,31457
 2003474:	9009883a 	mov	r4,r18
 2003478:	102f883a 	mov	r23,r2
 200347c:	1839883a 	mov	fp,r3
 2003480:	200a62c0 	call	200a62c <__muldf3>
 2003484:	180b883a 	mov	r5,r3
 2003488:	1009883a 	mov	r4,r2
 200348c:	20062000 	call	2006200 <pwm_of_force>
 2003490:	11008004 	addi	r4,r2,512
 2003494:	200ac980 	call	200ac98 <__floatsidf>
 2003498:	8809883a 	mov	r4,r17
 200349c:	800b883a 	mov	r5,r16
 20034a0:	000d883a 	mov	r6,zero
 20034a4:	000f883a 	mov	r7,zero
 20034a8:	d8800115 	stw	r2,4(sp)
 20034ac:	d8c00215 	stw	r3,8(sp)
 20034b0:	dc400615 	stw	r17,24(sp)
 20034b4:	ddc00715 	stw	r23,28(sp)
 20034b8:	df000315 	stw	fp,12(sp)
 20034bc:	d8800415 	stw	r2,16(sp)
 20034c0:	d8c00515 	stw	r3,20(sp)
 20034c4:	200ab7c0 	call	200ab7c <__gtdf2>
 20034c8:	0084b20e 	bge	zero,r2,2004794 <calculate_pid+0x20f8>
 20034cc:	800b883a 	mov	r5,r16
 20034d0:	8809883a 	mov	r4,r17
 20034d4:	01a666b4 	movhi	r6,39322
 20034d8:	31a66684 	addi	r6,r6,-26214
 20034dc:	01d022b4 	movhi	r7,16522
 20034e0:	39e66644 	addi	r7,r7,-26215
 20034e4:	200ab7c0 	call	200ab7c <__gtdf2>
 20034e8:	00801c16 	blt	zero,r2,200355c <calculate_pid+0xec0>
 20034ec:	b809883a 	mov	r4,r23
 20034f0:	e00b883a 	mov	r5,fp
 20034f4:	000d883a 	mov	r6,zero
 20034f8:	000f883a 	mov	r7,zero
 20034fc:	200ab7c0 	call	200ab7c <__gtdf2>
 2003500:	0084e50e 	bge	zero,r2,2004898 <calculate_pid+0x21fc>
 2003504:	e00b883a 	mov	r5,fp
 2003508:	b809883a 	mov	r4,r23
 200350c:	01a666b4 	movhi	r6,39322
 2003510:	31a66684 	addi	r6,r6,-26214
 2003514:	01d022b4 	movhi	r7,16522
 2003518:	39e66644 	addi	r7,r7,-26215
 200351c:	200ab7c0 	call	200ab7c <__gtdf2>
 2003520:	00800e16 	blt	zero,r2,200355c <calculate_pid+0xec0>
 2003524:	d9000117 	ldw	r4,4(sp)
 2003528:	d9400217 	ldw	r5,8(sp)
 200352c:	000d883a 	mov	r6,zero
 2003530:	000f883a 	mov	r7,zero
 2003534:	200ab7c0 	call	200ab7c <__gtdf2>
 2003538:	0084bb0e 	bge	zero,r2,2004828 <calculate_pid+0x218c>
 200353c:	d9400217 	ldw	r5,8(sp)
 2003540:	d9000117 	ldw	r4,4(sp)
 2003544:	01a666b4 	movhi	r6,39322
 2003548:	31a66684 	addi	r6,r6,-26214
 200354c:	01d022b4 	movhi	r7,16522
 2003550:	39e66644 	addi	r7,r7,-26215
 2003554:	200ab7c0 	call	200ab7c <__gtdf2>
 2003558:	0081af0e 	bge	zero,r2,2003c18 <calculate_pid+0x157c>
 200355c:	b009883a 	mov	r4,r22
 2003560:	a80b883a 	mov	r5,r21
 2003564:	018cccf4 	movhi	r6,13107
 2003568:	318cccc4 	addi	r6,r6,13107
 200356c:	01cffaf4 	movhi	r7,16363
 2003570:	39ccccc4 	addi	r7,r7,13107
 2003574:	200a62c0 	call	200a62c <__muldf3>
 2003578:	a009883a 	mov	r4,r20
 200357c:	980b883a 	mov	r5,r19
 2003580:	018cccf4 	movhi	r6,13107
 2003584:	318cccc4 	addi	r6,r6,13107
 2003588:	01cffaf4 	movhi	r7,16363
 200358c:	39ccccc4 	addi	r7,r7,13107
 2003590:	102d883a 	mov	r22,r2
 2003594:	182b883a 	mov	r21,r3
 2003598:	200a62c0 	call	200a62c <__muldf3>
 200359c:	d9400017 	ldw	r5,0(sp)
 20035a0:	9009883a 	mov	r4,r18
 20035a4:	018cccf4 	movhi	r6,13107
 20035a8:	318cccc4 	addi	r6,r6,13107
 20035ac:	01cffaf4 	movhi	r7,16363
 20035b0:	39ccccc4 	addi	r7,r7,13107
 20035b4:	1029883a 	mov	r20,r2
 20035b8:	1827883a 	mov	r19,r3
 20035bc:	200a62c0 	call	200a62c <__muldf3>
 20035c0:	0191ebb4 	movhi	r6,18350
 20035c4:	31851ec4 	addi	r6,r6,5243
 20035c8:	01cfdd34 	movhi	r7,16244
 20035cc:	39deb844 	addi	r7,r7,31457
 20035d0:	b009883a 	mov	r4,r22
 20035d4:	a80b883a 	mov	r5,r21
 20035d8:	1025883a 	mov	r18,r2
 20035dc:	d8c00015 	stw	r3,0(sp)
 20035e0:	200a62c0 	call	200a62c <__muldf3>
 20035e4:	180b883a 	mov	r5,r3
 20035e8:	1009883a 	mov	r4,r2
 20035ec:	20062000 	call	2006200 <pwm_of_force>
 20035f0:	11008004 	addi	r4,r2,512
 20035f4:	200ac980 	call	200ac98 <__floatsidf>
 20035f8:	0191ebb4 	movhi	r6,18350
 20035fc:	31851ec4 	addi	r6,r6,5243
 2003600:	01cfdd34 	movhi	r7,16244
 2003604:	39deb844 	addi	r7,r7,31457
 2003608:	a009883a 	mov	r4,r20
 200360c:	980b883a 	mov	r5,r19
 2003610:	1023883a 	mov	r17,r2
 2003614:	1821883a 	mov	r16,r3
 2003618:	200a62c0 	call	200a62c <__muldf3>
 200361c:	180b883a 	mov	r5,r3
 2003620:	1009883a 	mov	r4,r2
 2003624:	20062000 	call	2006200 <pwm_of_force>
 2003628:	11008004 	addi	r4,r2,512
 200362c:	200ac980 	call	200ac98 <__floatsidf>
 2003630:	d9400017 	ldw	r5,0(sp)
 2003634:	0191ebb4 	movhi	r6,18350
 2003638:	31851ec4 	addi	r6,r6,5243
 200363c:	01cfdd34 	movhi	r7,16244
 2003640:	39deb844 	addi	r7,r7,31457
 2003644:	9009883a 	mov	r4,r18
 2003648:	1039883a 	mov	fp,r2
 200364c:	182f883a 	mov	r23,r3
 2003650:	200a62c0 	call	200a62c <__muldf3>
 2003654:	180b883a 	mov	r5,r3
 2003658:	1009883a 	mov	r4,r2
 200365c:	20062000 	call	2006200 <pwm_of_force>
 2003660:	11008004 	addi	r4,r2,512
 2003664:	200ac980 	call	200ac98 <__floatsidf>
 2003668:	8809883a 	mov	r4,r17
 200366c:	800b883a 	mov	r5,r16
 2003670:	000d883a 	mov	r6,zero
 2003674:	000f883a 	mov	r7,zero
 2003678:	d8800115 	stw	r2,4(sp)
 200367c:	d8c00215 	stw	r3,8(sp)
 2003680:	dc400615 	stw	r17,24(sp)
 2003684:	df000715 	stw	fp,28(sp)
 2003688:	ddc00315 	stw	r23,12(sp)
 200368c:	d8800415 	stw	r2,16(sp)
 2003690:	d8c00515 	stw	r3,20(sp)
 2003694:	200ab7c0 	call	200ab7c <__gtdf2>
 2003698:	0084400e 	bge	zero,r2,200479c <calculate_pid+0x2100>
 200369c:	800b883a 	mov	r5,r16
 20036a0:	8809883a 	mov	r4,r17
 20036a4:	01a666b4 	movhi	r6,39322
 20036a8:	31a66684 	addi	r6,r6,-26214
 20036ac:	01d022b4 	movhi	r7,16522
 20036b0:	39e66644 	addi	r7,r7,-26215
 20036b4:	200ab7c0 	call	200ab7c <__gtdf2>
 20036b8:	00801c16 	blt	zero,r2,200372c <calculate_pid+0x1090>
 20036bc:	e009883a 	mov	r4,fp
 20036c0:	b80b883a 	mov	r5,r23
 20036c4:	000d883a 	mov	r6,zero
 20036c8:	000f883a 	mov	r7,zero
 20036cc:	200ab7c0 	call	200ab7c <__gtdf2>
 20036d0:	0084730e 	bge	zero,r2,20048a0 <calculate_pid+0x2204>
 20036d4:	b80b883a 	mov	r5,r23
 20036d8:	e009883a 	mov	r4,fp
 20036dc:	01a666b4 	movhi	r6,39322
 20036e0:	31a66684 	addi	r6,r6,-26214
 20036e4:	01d022b4 	movhi	r7,16522
 20036e8:	39e66644 	addi	r7,r7,-26215
 20036ec:	200ab7c0 	call	200ab7c <__gtdf2>
 20036f0:	00800e16 	blt	zero,r2,200372c <calculate_pid+0x1090>
 20036f4:	d9000117 	ldw	r4,4(sp)
 20036f8:	d9400217 	ldw	r5,8(sp)
 20036fc:	000d883a 	mov	r6,zero
 2003700:	000f883a 	mov	r7,zero
 2003704:	200ab7c0 	call	200ab7c <__gtdf2>
 2003708:	00844d0e 	bge	zero,r2,2004840 <calculate_pid+0x21a4>
 200370c:	d9400217 	ldw	r5,8(sp)
 2003710:	d9000117 	ldw	r4,4(sp)
 2003714:	01a666b4 	movhi	r6,39322
 2003718:	31a66684 	addi	r6,r6,-26214
 200371c:	01d022b4 	movhi	r7,16522
 2003720:	39e66644 	addi	r7,r7,-26215
 2003724:	200ab7c0 	call	200ab7c <__gtdf2>
 2003728:	00813b0e 	bge	zero,r2,2003c18 <calculate_pid+0x157c>
 200372c:	b009883a 	mov	r4,r22
 2003730:	a80b883a 	mov	r5,r21
 2003734:	018cccf4 	movhi	r6,13107
 2003738:	318cccc4 	addi	r6,r6,13107
 200373c:	01cffaf4 	movhi	r7,16363
 2003740:	39ccccc4 	addi	r7,r7,13107
 2003744:	200a62c0 	call	200a62c <__muldf3>
 2003748:	a009883a 	mov	r4,r20
 200374c:	980b883a 	mov	r5,r19
 2003750:	018cccf4 	movhi	r6,13107
 2003754:	318cccc4 	addi	r6,r6,13107
 2003758:	01cffaf4 	movhi	r7,16363
 200375c:	39ccccc4 	addi	r7,r7,13107
 2003760:	102d883a 	mov	r22,r2
 2003764:	182b883a 	mov	r21,r3
 2003768:	200a62c0 	call	200a62c <__muldf3>
 200376c:	d9400017 	ldw	r5,0(sp)
 2003770:	9009883a 	mov	r4,r18
 2003774:	018cccf4 	movhi	r6,13107
 2003778:	318cccc4 	addi	r6,r6,13107
 200377c:	01cffaf4 	movhi	r7,16363
 2003780:	39ccccc4 	addi	r7,r7,13107
 2003784:	1029883a 	mov	r20,r2
 2003788:	1827883a 	mov	r19,r3
 200378c:	200a62c0 	call	200a62c <__muldf3>
 2003790:	0191ebb4 	movhi	r6,18350
 2003794:	31851ec4 	addi	r6,r6,5243
 2003798:	01cfdd34 	movhi	r7,16244
 200379c:	39deb844 	addi	r7,r7,31457
 20037a0:	b009883a 	mov	r4,r22
 20037a4:	a80b883a 	mov	r5,r21
 20037a8:	1025883a 	mov	r18,r2
 20037ac:	1823883a 	mov	r17,r3
 20037b0:	200a62c0 	call	200a62c <__muldf3>
 20037b4:	180b883a 	mov	r5,r3
 20037b8:	1009883a 	mov	r4,r2
 20037bc:	20062000 	call	2006200 <pwm_of_force>
 20037c0:	11008004 	addi	r4,r2,512
 20037c4:	200ac980 	call	200ac98 <__floatsidf>
 20037c8:	0191ebb4 	movhi	r6,18350
 20037cc:	31851ec4 	addi	r6,r6,5243
 20037d0:	01cfdd34 	movhi	r7,16244
 20037d4:	39deb844 	addi	r7,r7,31457
 20037d8:	a009883a 	mov	r4,r20
 20037dc:	980b883a 	mov	r5,r19
 20037e0:	1039883a 	mov	fp,r2
 20037e4:	1821883a 	mov	r16,r3
 20037e8:	200a62c0 	call	200a62c <__muldf3>
 20037ec:	180b883a 	mov	r5,r3
 20037f0:	1009883a 	mov	r4,r2
 20037f4:	20062000 	call	2006200 <pwm_of_force>
 20037f8:	11008004 	addi	r4,r2,512
 20037fc:	200ac980 	call	200ac98 <__floatsidf>
 2003800:	0191ebb4 	movhi	r6,18350
 2003804:	31851ec4 	addi	r6,r6,5243
 2003808:	01cfdd34 	movhi	r7,16244
 200380c:	39deb844 	addi	r7,r7,31457
 2003810:	9009883a 	mov	r4,r18
 2003814:	880b883a 	mov	r5,r17
 2003818:	102f883a 	mov	r23,r2
 200381c:	d8c00015 	stw	r3,0(sp)
 2003820:	200a62c0 	call	200a62c <__muldf3>
 2003824:	180b883a 	mov	r5,r3
 2003828:	1009883a 	mov	r4,r2
 200382c:	20062000 	call	2006200 <pwm_of_force>
 2003830:	11008004 	addi	r4,r2,512
 2003834:	200ac980 	call	200ac98 <__floatsidf>
 2003838:	d8800115 	stw	r2,4(sp)
 200383c:	d8800017 	ldw	r2,0(sp)
 2003840:	e009883a 	mov	r4,fp
 2003844:	800b883a 	mov	r5,r16
 2003848:	d8800315 	stw	r2,12(sp)
 200384c:	d8800117 	ldw	r2,4(sp)
 2003850:	000d883a 	mov	r6,zero
 2003854:	000f883a 	mov	r7,zero
 2003858:	d8c00215 	stw	r3,8(sp)
 200385c:	df000615 	stw	fp,24(sp)
 2003860:	ddc00715 	stw	r23,28(sp)
 2003864:	d8800415 	stw	r2,16(sp)
 2003868:	d8c00515 	stw	r3,20(sp)
 200386c:	200ab7c0 	call	200ab7c <__gtdf2>
 2003870:	0083cc0e 	bge	zero,r2,20047a4 <calculate_pid+0x2108>
 2003874:	800b883a 	mov	r5,r16
 2003878:	e009883a 	mov	r4,fp
 200387c:	01a666b4 	movhi	r6,39322
 2003880:	31a66684 	addi	r6,r6,-26214
 2003884:	01d022b4 	movhi	r7,16522
 2003888:	39e66644 	addi	r7,r7,-26215
 200388c:	200ab7c0 	call	200ab7c <__gtdf2>
 2003890:	00801c16 	blt	zero,r2,2003904 <calculate_pid+0x1268>
 2003894:	d9400017 	ldw	r5,0(sp)
 2003898:	b809883a 	mov	r4,r23
 200389c:	000d883a 	mov	r6,zero
 20038a0:	000f883a 	mov	r7,zero
 20038a4:	200ab7c0 	call	200ab7c <__gtdf2>
 20038a8:	0083ff0e 	bge	zero,r2,20048a8 <calculate_pid+0x220c>
 20038ac:	d9400017 	ldw	r5,0(sp)
 20038b0:	b809883a 	mov	r4,r23
 20038b4:	01a666b4 	movhi	r6,39322
 20038b8:	31a66684 	addi	r6,r6,-26214
 20038bc:	01d022b4 	movhi	r7,16522
 20038c0:	39e66644 	addi	r7,r7,-26215
 20038c4:	200ab7c0 	call	200ab7c <__gtdf2>
 20038c8:	00800e16 	blt	zero,r2,2003904 <calculate_pid+0x1268>
 20038cc:	d9000117 	ldw	r4,4(sp)
 20038d0:	d9400217 	ldw	r5,8(sp)
 20038d4:	000d883a 	mov	r6,zero
 20038d8:	000f883a 	mov	r7,zero
 20038dc:	200ab7c0 	call	200ab7c <__gtdf2>
 20038e0:	0083da0e 	bge	zero,r2,200484c <calculate_pid+0x21b0>
 20038e4:	d9400217 	ldw	r5,8(sp)
 20038e8:	d9000117 	ldw	r4,4(sp)
 20038ec:	01a666b4 	movhi	r6,39322
 20038f0:	31a66684 	addi	r6,r6,-26214
 20038f4:	01d022b4 	movhi	r7,16522
 20038f8:	39e66644 	addi	r7,r7,-26215
 20038fc:	200ab7c0 	call	200ab7c <__gtdf2>
 2003900:	0080c50e 	bge	zero,r2,2003c18 <calculate_pid+0x157c>
 2003904:	b009883a 	mov	r4,r22
 2003908:	a80b883a 	mov	r5,r21
 200390c:	018cccf4 	movhi	r6,13107
 2003910:	318cccc4 	addi	r6,r6,13107
 2003914:	01cffaf4 	movhi	r7,16363
 2003918:	39ccccc4 	addi	r7,r7,13107
 200391c:	200a62c0 	call	200a62c <__muldf3>
 2003920:	a009883a 	mov	r4,r20
 2003924:	980b883a 	mov	r5,r19
 2003928:	018cccf4 	movhi	r6,13107
 200392c:	318cccc4 	addi	r6,r6,13107
 2003930:	01cffaf4 	movhi	r7,16363
 2003934:	39ccccc4 	addi	r7,r7,13107
 2003938:	102d883a 	mov	r22,r2
 200393c:	182b883a 	mov	r21,r3
 2003940:	200a62c0 	call	200a62c <__muldf3>
 2003944:	9009883a 	mov	r4,r18
 2003948:	880b883a 	mov	r5,r17
 200394c:	018cccf4 	movhi	r6,13107
 2003950:	318cccc4 	addi	r6,r6,13107
 2003954:	01cffaf4 	movhi	r7,16363
 2003958:	39ccccc4 	addi	r7,r7,13107
 200395c:	1029883a 	mov	r20,r2
 2003960:	1827883a 	mov	r19,r3
 2003964:	200a62c0 	call	200a62c <__muldf3>
 2003968:	0191ebb4 	movhi	r6,18350
 200396c:	31851ec4 	addi	r6,r6,5243
 2003970:	01cfdd34 	movhi	r7,16244
 2003974:	39deb844 	addi	r7,r7,31457
 2003978:	b009883a 	mov	r4,r22
 200397c:	a80b883a 	mov	r5,r21
 2003980:	102f883a 	mov	r23,r2
 2003984:	1825883a 	mov	r18,r3
 2003988:	200a62c0 	call	200a62c <__muldf3>
 200398c:	180b883a 	mov	r5,r3
 2003990:	1009883a 	mov	r4,r2
 2003994:	20062000 	call	2006200 <pwm_of_force>
 2003998:	11008004 	addi	r4,r2,512
 200399c:	200ac980 	call	200ac98 <__floatsidf>
 20039a0:	0191ebb4 	movhi	r6,18350
 20039a4:	31851ec4 	addi	r6,r6,5243
 20039a8:	01cfdd34 	movhi	r7,16244
 20039ac:	39deb844 	addi	r7,r7,31457
 20039b0:	a009883a 	mov	r4,r20
 20039b4:	980b883a 	mov	r5,r19
 20039b8:	1023883a 	mov	r17,r2
 20039bc:	1821883a 	mov	r16,r3
 20039c0:	200a62c0 	call	200a62c <__muldf3>
 20039c4:	180b883a 	mov	r5,r3
 20039c8:	1009883a 	mov	r4,r2
 20039cc:	20062000 	call	2006200 <pwm_of_force>
 20039d0:	11008004 	addi	r4,r2,512
 20039d4:	200ac980 	call	200ac98 <__floatsidf>
 20039d8:	0191ebb4 	movhi	r6,18350
 20039dc:	31851ec4 	addi	r6,r6,5243
 20039e0:	01cfdd34 	movhi	r7,16244
 20039e4:	39deb844 	addi	r7,r7,31457
 20039e8:	b809883a 	mov	r4,r23
 20039ec:	900b883a 	mov	r5,r18
 20039f0:	1039883a 	mov	fp,r2
 20039f4:	d8c00015 	stw	r3,0(sp)
 20039f8:	200a62c0 	call	200a62c <__muldf3>
 20039fc:	180b883a 	mov	r5,r3
 2003a00:	1009883a 	mov	r4,r2
 2003a04:	20062000 	call	2006200 <pwm_of_force>
 2003a08:	11008004 	addi	r4,r2,512
 2003a0c:	200ac980 	call	200ac98 <__floatsidf>
 2003a10:	d8800115 	stw	r2,4(sp)
 2003a14:	d8800017 	ldw	r2,0(sp)
 2003a18:	8809883a 	mov	r4,r17
 2003a1c:	800b883a 	mov	r5,r16
 2003a20:	d8800315 	stw	r2,12(sp)
 2003a24:	d8800117 	ldw	r2,4(sp)
 2003a28:	000d883a 	mov	r6,zero
 2003a2c:	000f883a 	mov	r7,zero
 2003a30:	d8c00215 	stw	r3,8(sp)
 2003a34:	dc400615 	stw	r17,24(sp)
 2003a38:	df000715 	stw	fp,28(sp)
 2003a3c:	d8800415 	stw	r2,16(sp)
 2003a40:	d8c00515 	stw	r3,20(sp)
 2003a44:	200ab7c0 	call	200ab7c <__gtdf2>
 2003a48:	0083580e 	bge	zero,r2,20047ac <calculate_pid+0x2110>
 2003a4c:	800b883a 	mov	r5,r16
 2003a50:	8809883a 	mov	r4,r17
 2003a54:	01a666b4 	movhi	r6,39322
 2003a58:	31a66684 	addi	r6,r6,-26214
 2003a5c:	01d022b4 	movhi	r7,16522
 2003a60:	39e66644 	addi	r7,r7,-26215
 2003a64:	200ab7c0 	call	200ab7c <__gtdf2>
 2003a68:	00801c16 	blt	zero,r2,2003adc <calculate_pid+0x1440>
 2003a6c:	d9400017 	ldw	r5,0(sp)
 2003a70:	e009883a 	mov	r4,fp
 2003a74:	000d883a 	mov	r6,zero
 2003a78:	000f883a 	mov	r7,zero
 2003a7c:	200ab7c0 	call	200ab7c <__gtdf2>
 2003a80:	00838c0e 	bge	zero,r2,20048b4 <calculate_pid+0x2218>
 2003a84:	d9400017 	ldw	r5,0(sp)
 2003a88:	e009883a 	mov	r4,fp
 2003a8c:	01a666b4 	movhi	r6,39322
 2003a90:	31a66684 	addi	r6,r6,-26214
 2003a94:	01d022b4 	movhi	r7,16522
 2003a98:	39e66644 	addi	r7,r7,-26215
 2003a9c:	200ab7c0 	call	200ab7c <__gtdf2>
 2003aa0:	00800e16 	blt	zero,r2,2003adc <calculate_pid+0x1440>
 2003aa4:	d9000117 	ldw	r4,4(sp)
 2003aa8:	d9400217 	ldw	r5,8(sp)
 2003aac:	000d883a 	mov	r6,zero
 2003ab0:	000f883a 	mov	r7,zero
 2003ab4:	200ab7c0 	call	200ab7c <__gtdf2>
 2003ab8:	0083670e 	bge	zero,r2,2004858 <calculate_pid+0x21bc>
 2003abc:	d9400217 	ldw	r5,8(sp)
 2003ac0:	d9000117 	ldw	r4,4(sp)
 2003ac4:	01a666b4 	movhi	r6,39322
 2003ac8:	31a66684 	addi	r6,r6,-26214
 2003acc:	01d022b4 	movhi	r7,16522
 2003ad0:	39e66644 	addi	r7,r7,-26215
 2003ad4:	200ab7c0 	call	200ab7c <__gtdf2>
 2003ad8:	00804f0e 	bge	zero,r2,2003c18 <calculate_pid+0x157c>
 2003adc:	a80b883a 	mov	r5,r21
 2003ae0:	018cccf4 	movhi	r6,13107
 2003ae4:	318cccc4 	addi	r6,r6,13107
 2003ae8:	01cffaf4 	movhi	r7,16363
 2003aec:	39ccccc4 	addi	r7,r7,13107
 2003af0:	b009883a 	mov	r4,r22
 2003af4:	200a62c0 	call	200a62c <__muldf3>
 2003af8:	0191ebb4 	movhi	r6,18350
 2003afc:	31851ec4 	addi	r6,r6,5243
 2003b00:	01cfdd34 	movhi	r7,16244
 2003b04:	39deb844 	addi	r7,r7,31457
 2003b08:	1009883a 	mov	r4,r2
 2003b0c:	180b883a 	mov	r5,r3
 2003b10:	200a62c0 	call	200a62c <__muldf3>
 2003b14:	180b883a 	mov	r5,r3
 2003b18:	1009883a 	mov	r4,r2
 2003b1c:	20062000 	call	2006200 <pwm_of_force>
 2003b20:	11008004 	addi	r4,r2,512
 2003b24:	200ac980 	call	200ac98 <__floatsidf>
 2003b28:	980b883a 	mov	r5,r19
 2003b2c:	018cccf4 	movhi	r6,13107
 2003b30:	318cccc4 	addi	r6,r6,13107
 2003b34:	01cffaf4 	movhi	r7,16363
 2003b38:	39ccccc4 	addi	r7,r7,13107
 2003b3c:	a009883a 	mov	r4,r20
 2003b40:	102b883a 	mov	r21,r2
 2003b44:	1821883a 	mov	r16,r3
 2003b48:	200a62c0 	call	200a62c <__muldf3>
 2003b4c:	0191ebb4 	movhi	r6,18350
 2003b50:	31851ec4 	addi	r6,r6,5243
 2003b54:	01cfdd34 	movhi	r7,16244
 2003b58:	39deb844 	addi	r7,r7,31457
 2003b5c:	1009883a 	mov	r4,r2
 2003b60:	180b883a 	mov	r5,r3
 2003b64:	200a62c0 	call	200a62c <__muldf3>
 2003b68:	180b883a 	mov	r5,r3
 2003b6c:	1009883a 	mov	r4,r2
 2003b70:	20062000 	call	2006200 <pwm_of_force>
 2003b74:	11008004 	addi	r4,r2,512
 2003b78:	200ac980 	call	200ac98 <__floatsidf>
 2003b7c:	018cccf4 	movhi	r6,13107
 2003b80:	318cccc4 	addi	r6,r6,13107
 2003b84:	01cffaf4 	movhi	r7,16363
 2003b88:	39ccccc4 	addi	r7,r7,13107
 2003b8c:	b809883a 	mov	r4,r23
 2003b90:	900b883a 	mov	r5,r18
 2003b94:	1023883a 	mov	r17,r2
 2003b98:	1827883a 	mov	r19,r3
 2003b9c:	200a62c0 	call	200a62c <__muldf3>
 2003ba0:	0191ebb4 	movhi	r6,18350
 2003ba4:	31851ec4 	addi	r6,r6,5243
 2003ba8:	01cfdd34 	movhi	r7,16244
 2003bac:	39deb844 	addi	r7,r7,31457
 2003bb0:	1009883a 	mov	r4,r2
 2003bb4:	180b883a 	mov	r5,r3
 2003bb8:	200a62c0 	call	200a62c <__muldf3>
 2003bbc:	180b883a 	mov	r5,r3
 2003bc0:	1009883a 	mov	r4,r2
 2003bc4:	20062000 	call	2006200 <pwm_of_force>
 2003bc8:	11008004 	addi	r4,r2,512
 2003bcc:	200ac980 	call	200ac98 <__floatsidf>
 2003bd0:	a809883a 	mov	r4,r21
 2003bd4:	800b883a 	mov	r5,r16
 2003bd8:	000d883a 	mov	r6,zero
 2003bdc:	000f883a 	mov	r7,zero
 2003be0:	d8800415 	stw	r2,16(sp)
 2003be4:	d8c00515 	stw	r3,20(sp)
 2003be8:	dd400615 	stw	r21,24(sp)
 2003bec:	dc400715 	stw	r17,28(sp)
 2003bf0:	dcc00315 	stw	r19,12(sp)
 2003bf4:	200ab7c0 	call	200ab7c <__gtdf2>
 2003bf8:	0082ee0e 	bge	zero,r2,20047b4 <calculate_pid+0x2118>
 2003bfc:	800b883a 	mov	r5,r16
 2003c00:	a809883a 	mov	r4,r21
 2003c04:	01a666b4 	movhi	r6,39322
 2003c08:	31a66684 	addi	r6,r6,-26214
 2003c0c:	01d022b4 	movhi	r7,16522
 2003c10:	39e66644 	addi	r7,r7,-26215
 2003c14:	200ab7c0 	call	200ab7c <__gtdf2>
 2003c18:	d9000617 	ldw	r4,24(sp)
 2003c1c:	800b883a 	mov	r5,r16
 2003c20:	040080b4 	movhi	r16,514
 2003c24:	84095f04 	addi	r16,r16,9596
 2003c28:	200ad6c0 	call	200ad6c <__fixdfsi>
 2003c2c:	d9000717 	ldw	r4,28(sp)
 2003c30:	d9400317 	ldw	r5,12(sp)
 2003c34:	80800015 	stw	r2,0(r16)
 2003c38:	1023883a 	mov	r17,r2
 2003c3c:	200ad6c0 	call	200ad6c <__fixdfsi>
 2003c40:	d9000b17 	ldw	r4,44(sp)
 2003c44:	d9400817 	ldw	r5,32(sp)
 2003c48:	80800115 	stw	r2,4(r16)
 2003c4c:	200ad6c0 	call	200ad6c <__fixdfsi>
 2003c50:	d9000917 	ldw	r4,36(sp)
 2003c54:	d9400a17 	ldw	r5,40(sp)
 2003c58:	80800215 	stw	r2,8(r16)
 2003c5c:	200ad6c0 	call	200ad6c <__fixdfsi>
 2003c60:	d9000417 	ldw	r4,16(sp)
 2003c64:	d9400517 	ldw	r5,20(sp)
 2003c68:	80800315 	stw	r2,12(r16)
 2003c6c:	200ad6c0 	call	200ad6c <__fixdfsi>
 2003c70:	880b883a 	mov	r5,r17
 2003c74:	0009883a 	mov	r4,zero
 2003c78:	80800415 	stw	r2,16(r16)
 2003c7c:	200725c0 	call	200725c <set_motor_duty_cycle>
 2003c80:	81400117 	ldw	r5,4(r16)
 2003c84:	01000044 	movi	r4,1
 2003c88:	200725c0 	call	200725c <set_motor_duty_cycle>
 2003c8c:	81400217 	ldw	r5,8(r16)
 2003c90:	01000084 	movi	r4,2
 2003c94:	200725c0 	call	200725c <set_motor_duty_cycle>
 2003c98:	81400317 	ldw	r5,12(r16)
 2003c9c:	010000c4 	movi	r4,3
 2003ca0:	200725c0 	call	200725c <set_motor_duty_cycle>
 2003ca4:	81400417 	ldw	r5,16(r16)
 2003ca8:	01000104 	movi	r4,4
 2003cac:	dfc01517 	ldw	ra,84(sp)
 2003cb0:	df001417 	ldw	fp,80(sp)
 2003cb4:	ddc01317 	ldw	r23,76(sp)
 2003cb8:	dd801217 	ldw	r22,72(sp)
 2003cbc:	dd401117 	ldw	r21,68(sp)
 2003cc0:	dd001017 	ldw	r20,64(sp)
 2003cc4:	dcc00f17 	ldw	r19,60(sp)
 2003cc8:	dc800e17 	ldw	r18,56(sp)
 2003ccc:	dc400d17 	ldw	r17,52(sp)
 2003cd0:	dc000c17 	ldw	r16,48(sp)
 2003cd4:	dec01604 	addi	sp,sp,88
 2003cd8:	200725c1 	jmpi	200725c <set_motor_duty_cycle>
 2003cdc:	d9000317 	ldw	r4,12(sp)
 2003ce0:	d9400417 	ldw	r5,16(sp)
 2003ce4:	018cccf4 	movhi	r6,13107
 2003ce8:	318cccc4 	addi	r6,r6,13107
 2003cec:	01cffaf4 	movhi	r7,16363
 2003cf0:	39ccccc4 	addi	r7,r7,13107
 2003cf4:	200a62c0 	call	200a62c <__muldf3>
 2003cf8:	d9000517 	ldw	r4,20(sp)
 2003cfc:	b80b883a 	mov	r5,r23
 2003d00:	018cccf4 	movhi	r6,13107
 2003d04:	318cccc4 	addi	r6,r6,13107
 2003d08:	01cffaf4 	movhi	r7,16363
 2003d0c:	39ccccc4 	addi	r7,r7,13107
 2003d10:	1839883a 	mov	fp,r3
 2003d14:	d8800315 	stw	r2,12(sp)
 2003d18:	200a62c0 	call	200a62c <__muldf3>
 2003d1c:	d9000317 	ldw	r4,12(sp)
 2003d20:	0191ebb4 	movhi	r6,18350
 2003d24:	31851ec4 	addi	r6,r6,5243
 2003d28:	01cfdd34 	movhi	r7,16244
 2003d2c:	39deb844 	addi	r7,r7,31457
 2003d30:	e00b883a 	mov	r5,fp
 2003d34:	d8800415 	stw	r2,16(sp)
 2003d38:	d8c00515 	stw	r3,20(sp)
 2003d3c:	200a62c0 	call	200a62c <__muldf3>
 2003d40:	180b883a 	mov	r5,r3
 2003d44:	1009883a 	mov	r4,r2
 2003d48:	20062000 	call	2006200 <pwm_of_force>
 2003d4c:	11008004 	addi	r4,r2,512
 2003d50:	200ac980 	call	200ac98 <__floatsidf>
 2003d54:	d9000417 	ldw	r4,16(sp)
 2003d58:	d9400517 	ldw	r5,20(sp)
 2003d5c:	0191ebb4 	movhi	r6,18350
 2003d60:	31851ec4 	addi	r6,r6,5243
 2003d64:	01cfdd34 	movhi	r7,16244
 2003d68:	39deb844 	addi	r7,r7,31457
 2003d6c:	102f883a 	mov	r23,r2
 2003d70:	d8c00815 	stw	r3,32(sp)
 2003d74:	200a62c0 	call	200a62c <__muldf3>
 2003d78:	180b883a 	mov	r5,r3
 2003d7c:	1009883a 	mov	r4,r2
 2003d80:	20062000 	call	2006200 <pwm_of_force>
 2003d84:	11008004 	addi	r4,r2,512
 2003d88:	200ac980 	call	200ac98 <__floatsidf>
 2003d8c:	d9400817 	ldw	r5,32(sp)
 2003d90:	b809883a 	mov	r4,r23
 2003d94:	000d883a 	mov	r6,zero
 2003d98:	000f883a 	mov	r7,zero
 2003d9c:	102d883a 	mov	r22,r2
 2003da0:	182b883a 	mov	r21,r3
 2003da4:	ddc00b15 	stw	r23,44(sp)
 2003da8:	d8800915 	stw	r2,36(sp)
 2003dac:	d8c00a15 	stw	r3,40(sp)
 2003db0:	200ab7c0 	call	200ab7c <__gtdf2>
 2003db4:	0082850e 	bge	zero,r2,20047cc <calculate_pid+0x2130>
 2003db8:	d9400817 	ldw	r5,32(sp)
 2003dbc:	b809883a 	mov	r4,r23
 2003dc0:	01a666b4 	movhi	r6,39322
 2003dc4:	31a66684 	addi	r6,r6,-26214
 2003dc8:	01d022b4 	movhi	r7,16522
 2003dcc:	39e66644 	addi	r7,r7,-26215
 2003dd0:	200ab7c0 	call	200ab7c <__gtdf2>
 2003dd4:	00800e16 	blt	zero,r2,2003e10 <calculate_pid+0x1774>
 2003dd8:	b009883a 	mov	r4,r22
 2003ddc:	a80b883a 	mov	r5,r21
 2003de0:	000d883a 	mov	r6,zero
 2003de4:	000f883a 	mov	r7,zero
 2003de8:	200ab7c0 	call	200ab7c <__gtdf2>
 2003dec:	0082b70e 	bge	zero,r2,20048cc <calculate_pid+0x2230>
 2003df0:	a80b883a 	mov	r5,r21
 2003df4:	b009883a 	mov	r4,r22
 2003df8:	01a666b4 	movhi	r6,39322
 2003dfc:	31a66684 	addi	r6,r6,-26214
 2003e00:	01d022b4 	movhi	r7,16522
 2003e04:	39e66644 	addi	r7,r7,-26215
 2003e08:	200ab7c0 	call	200ab7c <__gtdf2>
 2003e0c:	00bade0e 	bge	zero,r2,2002988 <calculate_pid+0x2ec>
 2003e10:	d9000317 	ldw	r4,12(sp)
 2003e14:	e00b883a 	mov	r5,fp
 2003e18:	018cccf4 	movhi	r6,13107
 2003e1c:	318cccc4 	addi	r6,r6,13107
 2003e20:	01cffaf4 	movhi	r7,16363
 2003e24:	39ccccc4 	addi	r7,r7,13107
 2003e28:	200a62c0 	call	200a62c <__muldf3>
 2003e2c:	d9000417 	ldw	r4,16(sp)
 2003e30:	d9400517 	ldw	r5,20(sp)
 2003e34:	018cccf4 	movhi	r6,13107
 2003e38:	318cccc4 	addi	r6,r6,13107
 2003e3c:	01cffaf4 	movhi	r7,16363
 2003e40:	39ccccc4 	addi	r7,r7,13107
 2003e44:	1839883a 	mov	fp,r3
 2003e48:	d8800315 	stw	r2,12(sp)
 2003e4c:	200a62c0 	call	200a62c <__muldf3>
 2003e50:	d9000317 	ldw	r4,12(sp)
 2003e54:	0191ebb4 	movhi	r6,18350
 2003e58:	31851ec4 	addi	r6,r6,5243
 2003e5c:	01cfdd34 	movhi	r7,16244
 2003e60:	39deb844 	addi	r7,r7,31457
 2003e64:	e00b883a 	mov	r5,fp
 2003e68:	d8800415 	stw	r2,16(sp)
 2003e6c:	d8c00515 	stw	r3,20(sp)
 2003e70:	200a62c0 	call	200a62c <__muldf3>
 2003e74:	180b883a 	mov	r5,r3
 2003e78:	1009883a 	mov	r4,r2
 2003e7c:	20062000 	call	2006200 <pwm_of_force>
 2003e80:	11008004 	addi	r4,r2,512
 2003e84:	200ac980 	call	200ac98 <__floatsidf>
 2003e88:	d9000417 	ldw	r4,16(sp)
 2003e8c:	d9400517 	ldw	r5,20(sp)
 2003e90:	0191ebb4 	movhi	r6,18350
 2003e94:	31851ec4 	addi	r6,r6,5243
 2003e98:	01cfdd34 	movhi	r7,16244
 2003e9c:	39deb844 	addi	r7,r7,31457
 2003ea0:	102f883a 	mov	r23,r2
 2003ea4:	d8c00815 	stw	r3,32(sp)
 2003ea8:	200a62c0 	call	200a62c <__muldf3>
 2003eac:	180b883a 	mov	r5,r3
 2003eb0:	1009883a 	mov	r4,r2
 2003eb4:	20062000 	call	2006200 <pwm_of_force>
 2003eb8:	11008004 	addi	r4,r2,512
 2003ebc:	200ac980 	call	200ac98 <__floatsidf>
 2003ec0:	d9400817 	ldw	r5,32(sp)
 2003ec4:	b809883a 	mov	r4,r23
 2003ec8:	000d883a 	mov	r6,zero
 2003ecc:	000f883a 	mov	r7,zero
 2003ed0:	102d883a 	mov	r22,r2
 2003ed4:	182b883a 	mov	r21,r3
 2003ed8:	ddc00b15 	stw	r23,44(sp)
 2003edc:	d8800915 	stw	r2,36(sp)
 2003ee0:	d8c00a15 	stw	r3,40(sp)
 2003ee4:	200ab7c0 	call	200ab7c <__gtdf2>
 2003ee8:	00823b0e 	bge	zero,r2,20047d8 <calculate_pid+0x213c>
 2003eec:	d9400817 	ldw	r5,32(sp)
 2003ef0:	b809883a 	mov	r4,r23
 2003ef4:	01a666b4 	movhi	r6,39322
 2003ef8:	31a66684 	addi	r6,r6,-26214
 2003efc:	01d022b4 	movhi	r7,16522
 2003f00:	39e66644 	addi	r7,r7,-26215
 2003f04:	200ab7c0 	call	200ab7c <__gtdf2>
 2003f08:	00800e16 	blt	zero,r2,2003f44 <calculate_pid+0x18a8>
 2003f0c:	b009883a 	mov	r4,r22
 2003f10:	a80b883a 	mov	r5,r21
 2003f14:	000d883a 	mov	r6,zero
 2003f18:	000f883a 	mov	r7,zero
 2003f1c:	200ab7c0 	call	200ab7c <__gtdf2>
 2003f20:	00826f0e 	bge	zero,r2,20048e0 <calculate_pid+0x2244>
 2003f24:	a80b883a 	mov	r5,r21
 2003f28:	b009883a 	mov	r4,r22
 2003f2c:	01a666b4 	movhi	r6,39322
 2003f30:	31a66684 	addi	r6,r6,-26214
 2003f34:	01d022b4 	movhi	r7,16522
 2003f38:	39e66644 	addi	r7,r7,-26215
 2003f3c:	200ab7c0 	call	200ab7c <__gtdf2>
 2003f40:	00ba910e 	bge	zero,r2,2002988 <calculate_pid+0x2ec>
 2003f44:	d9000317 	ldw	r4,12(sp)
 2003f48:	e00b883a 	mov	r5,fp
 2003f4c:	018cccf4 	movhi	r6,13107
 2003f50:	318cccc4 	addi	r6,r6,13107
 2003f54:	01cffaf4 	movhi	r7,16363
 2003f58:	39ccccc4 	addi	r7,r7,13107
 2003f5c:	200a62c0 	call	200a62c <__muldf3>
 2003f60:	d9000417 	ldw	r4,16(sp)
 2003f64:	d9400517 	ldw	r5,20(sp)
 2003f68:	018cccf4 	movhi	r6,13107
 2003f6c:	318cccc4 	addi	r6,r6,13107
 2003f70:	01cffaf4 	movhi	r7,16363
 2003f74:	39ccccc4 	addi	r7,r7,13107
 2003f78:	1839883a 	mov	fp,r3
 2003f7c:	d8800315 	stw	r2,12(sp)
 2003f80:	200a62c0 	call	200a62c <__muldf3>
 2003f84:	d9000317 	ldw	r4,12(sp)
 2003f88:	0191ebb4 	movhi	r6,18350
 2003f8c:	31851ec4 	addi	r6,r6,5243
 2003f90:	01cfdd34 	movhi	r7,16244
 2003f94:	39deb844 	addi	r7,r7,31457
 2003f98:	e00b883a 	mov	r5,fp
 2003f9c:	d8800415 	stw	r2,16(sp)
 2003fa0:	d8c00515 	stw	r3,20(sp)
 2003fa4:	200a62c0 	call	200a62c <__muldf3>
 2003fa8:	180b883a 	mov	r5,r3
 2003fac:	1009883a 	mov	r4,r2
 2003fb0:	20062000 	call	2006200 <pwm_of_force>
 2003fb4:	11008004 	addi	r4,r2,512
 2003fb8:	200ac980 	call	200ac98 <__floatsidf>
 2003fbc:	d9000417 	ldw	r4,16(sp)
 2003fc0:	d9400517 	ldw	r5,20(sp)
 2003fc4:	0191ebb4 	movhi	r6,18350
 2003fc8:	31851ec4 	addi	r6,r6,5243
 2003fcc:	01cfdd34 	movhi	r7,16244
 2003fd0:	39deb844 	addi	r7,r7,31457
 2003fd4:	102f883a 	mov	r23,r2
 2003fd8:	d8c00815 	stw	r3,32(sp)
 2003fdc:	200a62c0 	call	200a62c <__muldf3>
 2003fe0:	180b883a 	mov	r5,r3
 2003fe4:	1009883a 	mov	r4,r2
 2003fe8:	20062000 	call	2006200 <pwm_of_force>
 2003fec:	11008004 	addi	r4,r2,512
 2003ff0:	200ac980 	call	200ac98 <__floatsidf>
 2003ff4:	d9400817 	ldw	r5,32(sp)
 2003ff8:	b809883a 	mov	r4,r23
 2003ffc:	000d883a 	mov	r6,zero
 2004000:	000f883a 	mov	r7,zero
 2004004:	102d883a 	mov	r22,r2
 2004008:	182b883a 	mov	r21,r3
 200400c:	ddc00b15 	stw	r23,44(sp)
 2004010:	d8800915 	stw	r2,36(sp)
 2004014:	d8c00a15 	stw	r3,40(sp)
 2004018:	200ab7c0 	call	200ab7c <__gtdf2>
 200401c:	0082280e 	bge	zero,r2,20048c0 <calculate_pid+0x2224>
 2004020:	d9400817 	ldw	r5,32(sp)
 2004024:	b809883a 	mov	r4,r23
 2004028:	01a666b4 	movhi	r6,39322
 200402c:	31a66684 	addi	r6,r6,-26214
 2004030:	01d022b4 	movhi	r7,16522
 2004034:	39e66644 	addi	r7,r7,-26215
 2004038:	200ab7c0 	call	200ab7c <__gtdf2>
 200403c:	00800e16 	blt	zero,r2,2004078 <calculate_pid+0x19dc>
 2004040:	b009883a 	mov	r4,r22
 2004044:	a80b883a 	mov	r5,r21
 2004048:	000d883a 	mov	r6,zero
 200404c:	000f883a 	mov	r7,zero
 2004050:	200ab7c0 	call	200ab7c <__gtdf2>
 2004054:	0082030e 	bge	zero,r2,2004864 <calculate_pid+0x21c8>
 2004058:	a80b883a 	mov	r5,r21
 200405c:	b009883a 	mov	r4,r22
 2004060:	01a666b4 	movhi	r6,39322
 2004064:	31a66684 	addi	r6,r6,-26214
 2004068:	01d022b4 	movhi	r7,16522
 200406c:	39e66644 	addi	r7,r7,-26215
 2004070:	200ab7c0 	call	200ab7c <__gtdf2>
 2004074:	00ba440e 	bge	zero,r2,2002988 <calculate_pid+0x2ec>
 2004078:	d9000317 	ldw	r4,12(sp)
 200407c:	e00b883a 	mov	r5,fp
 2004080:	018cccf4 	movhi	r6,13107
 2004084:	318cccc4 	addi	r6,r6,13107
 2004088:	01cffaf4 	movhi	r7,16363
 200408c:	39ccccc4 	addi	r7,r7,13107
 2004090:	200a62c0 	call	200a62c <__muldf3>
 2004094:	d9000417 	ldw	r4,16(sp)
 2004098:	d9400517 	ldw	r5,20(sp)
 200409c:	018cccf4 	movhi	r6,13107
 20040a0:	318cccc4 	addi	r6,r6,13107
 20040a4:	01cffaf4 	movhi	r7,16363
 20040a8:	39ccccc4 	addi	r7,r7,13107
 20040ac:	1839883a 	mov	fp,r3
 20040b0:	d8800315 	stw	r2,12(sp)
 20040b4:	200a62c0 	call	200a62c <__muldf3>
 20040b8:	d9000317 	ldw	r4,12(sp)
 20040bc:	0191ebb4 	movhi	r6,18350
 20040c0:	31851ec4 	addi	r6,r6,5243
 20040c4:	01cfdd34 	movhi	r7,16244
 20040c8:	39deb844 	addi	r7,r7,31457
 20040cc:	e00b883a 	mov	r5,fp
 20040d0:	d8800415 	stw	r2,16(sp)
 20040d4:	d8c00515 	stw	r3,20(sp)
 20040d8:	200a62c0 	call	200a62c <__muldf3>
 20040dc:	180b883a 	mov	r5,r3
 20040e0:	1009883a 	mov	r4,r2
 20040e4:	20062000 	call	2006200 <pwm_of_force>
 20040e8:	11008004 	addi	r4,r2,512
 20040ec:	200ac980 	call	200ac98 <__floatsidf>
 20040f0:	d9000417 	ldw	r4,16(sp)
 20040f4:	d9400517 	ldw	r5,20(sp)
 20040f8:	0191ebb4 	movhi	r6,18350
 20040fc:	31851ec4 	addi	r6,r6,5243
 2004100:	01cfdd34 	movhi	r7,16244
 2004104:	39deb844 	addi	r7,r7,31457
 2004108:	102f883a 	mov	r23,r2
 200410c:	d8c00815 	stw	r3,32(sp)
 2004110:	200a62c0 	call	200a62c <__muldf3>
 2004114:	180b883a 	mov	r5,r3
 2004118:	1009883a 	mov	r4,r2
 200411c:	20062000 	call	2006200 <pwm_of_force>
 2004120:	11008004 	addi	r4,r2,512
 2004124:	200ac980 	call	200ac98 <__floatsidf>
 2004128:	d9400817 	ldw	r5,32(sp)
 200412c:	b809883a 	mov	r4,r23
 2004130:	000d883a 	mov	r6,zero
 2004134:	000f883a 	mov	r7,zero
 2004138:	102d883a 	mov	r22,r2
 200413c:	182b883a 	mov	r21,r3
 2004140:	ddc00b15 	stw	r23,44(sp)
 2004144:	d8800915 	stw	r2,36(sp)
 2004148:	d8c00a15 	stw	r3,40(sp)
 200414c:	200ab7c0 	call	200ab7c <__gtdf2>
 2004150:	0081e00e 	bge	zero,r2,20048d4 <calculate_pid+0x2238>
 2004154:	d9400817 	ldw	r5,32(sp)
 2004158:	b809883a 	mov	r4,r23
 200415c:	01a666b4 	movhi	r6,39322
 2004160:	31a66684 	addi	r6,r6,-26214
 2004164:	01d022b4 	movhi	r7,16522
 2004168:	39e66644 	addi	r7,r7,-26215
 200416c:	200ab7c0 	call	200ab7c <__gtdf2>
 2004170:	00800e16 	blt	zero,r2,20041ac <calculate_pid+0x1b10>
 2004174:	b009883a 	mov	r4,r22
 2004178:	a80b883a 	mov	r5,r21
 200417c:	000d883a 	mov	r6,zero
 2004180:	000f883a 	mov	r7,zero
 2004184:	200ab7c0 	call	200ab7c <__gtdf2>
 2004188:	0081dc0e 	bge	zero,r2,20048fc <calculate_pid+0x2260>
 200418c:	a80b883a 	mov	r5,r21
 2004190:	b009883a 	mov	r4,r22
 2004194:	01a666b4 	movhi	r6,39322
 2004198:	31a66684 	addi	r6,r6,-26214
 200419c:	01d022b4 	movhi	r7,16522
 20041a0:	39e66644 	addi	r7,r7,-26215
 20041a4:	200ab7c0 	call	200ab7c <__gtdf2>
 20041a8:	00b9f70e 	bge	zero,r2,2002988 <calculate_pid+0x2ec>
 20041ac:	d9000317 	ldw	r4,12(sp)
 20041b0:	e00b883a 	mov	r5,fp
 20041b4:	018cccf4 	movhi	r6,13107
 20041b8:	318cccc4 	addi	r6,r6,13107
 20041bc:	01cffaf4 	movhi	r7,16363
 20041c0:	39ccccc4 	addi	r7,r7,13107
 20041c4:	200a62c0 	call	200a62c <__muldf3>
 20041c8:	d9000417 	ldw	r4,16(sp)
 20041cc:	d9400517 	ldw	r5,20(sp)
 20041d0:	018cccf4 	movhi	r6,13107
 20041d4:	318cccc4 	addi	r6,r6,13107
 20041d8:	01cffaf4 	movhi	r7,16363
 20041dc:	39ccccc4 	addi	r7,r7,13107
 20041e0:	1839883a 	mov	fp,r3
 20041e4:	d8800315 	stw	r2,12(sp)
 20041e8:	200a62c0 	call	200a62c <__muldf3>
 20041ec:	d9000317 	ldw	r4,12(sp)
 20041f0:	0191ebb4 	movhi	r6,18350
 20041f4:	31851ec4 	addi	r6,r6,5243
 20041f8:	01cfdd34 	movhi	r7,16244
 20041fc:	39deb844 	addi	r7,r7,31457
 2004200:	e00b883a 	mov	r5,fp
 2004204:	d8800415 	stw	r2,16(sp)
 2004208:	d8c00515 	stw	r3,20(sp)
 200420c:	200a62c0 	call	200a62c <__muldf3>
 2004210:	180b883a 	mov	r5,r3
 2004214:	1009883a 	mov	r4,r2
 2004218:	20062000 	call	2006200 <pwm_of_force>
 200421c:	11008004 	addi	r4,r2,512
 2004220:	200ac980 	call	200ac98 <__floatsidf>
 2004224:	d9000417 	ldw	r4,16(sp)
 2004228:	d9400517 	ldw	r5,20(sp)
 200422c:	0191ebb4 	movhi	r6,18350
 2004230:	31851ec4 	addi	r6,r6,5243
 2004234:	01cfdd34 	movhi	r7,16244
 2004238:	39deb844 	addi	r7,r7,31457
 200423c:	102f883a 	mov	r23,r2
 2004240:	d8c00815 	stw	r3,32(sp)
 2004244:	200a62c0 	call	200a62c <__muldf3>
 2004248:	180b883a 	mov	r5,r3
 200424c:	1009883a 	mov	r4,r2
 2004250:	20062000 	call	2006200 <pwm_of_force>
 2004254:	11008004 	addi	r4,r2,512
 2004258:	200ac980 	call	200ac98 <__floatsidf>
 200425c:	d9400817 	ldw	r5,32(sp)
 2004260:	b809883a 	mov	r4,r23
 2004264:	000d883a 	mov	r6,zero
 2004268:	000f883a 	mov	r7,zero
 200426c:	102d883a 	mov	r22,r2
 2004270:	182b883a 	mov	r21,r3
 2004274:	ddc00b15 	stw	r23,44(sp)
 2004278:	d8800915 	stw	r2,36(sp)
 200427c:	d8c00a15 	stw	r3,40(sp)
 2004280:	200ab7c0 	call	200ab7c <__gtdf2>
 2004284:	00816b0e 	bge	zero,r2,2004834 <calculate_pid+0x2198>
 2004288:	d9400817 	ldw	r5,32(sp)
 200428c:	b809883a 	mov	r4,r23
 2004290:	01a666b4 	movhi	r6,39322
 2004294:	31a66684 	addi	r6,r6,-26214
 2004298:	01d022b4 	movhi	r7,16522
 200429c:	39e66644 	addi	r7,r7,-26215
 20042a0:	200ab7c0 	call	200ab7c <__gtdf2>
 20042a4:	00800e16 	blt	zero,r2,20042e0 <calculate_pid+0x1c44>
 20042a8:	b009883a 	mov	r4,r22
 20042ac:	a80b883a 	mov	r5,r21
 20042b0:	000d883a 	mov	r6,zero
 20042b4:	000f883a 	mov	r7,zero
 20042b8:	200ab7c0 	call	200ab7c <__gtdf2>
 20042bc:	0081940e 	bge	zero,r2,2004910 <calculate_pid+0x2274>
 20042c0:	a80b883a 	mov	r5,r21
 20042c4:	b009883a 	mov	r4,r22
 20042c8:	01a666b4 	movhi	r6,39322
 20042cc:	31a66684 	addi	r6,r6,-26214
 20042d0:	01d022b4 	movhi	r7,16522
 20042d4:	39e66644 	addi	r7,r7,-26215
 20042d8:	200ab7c0 	call	200ab7c <__gtdf2>
 20042dc:	00b9aa0e 	bge	zero,r2,2002988 <calculate_pid+0x2ec>
 20042e0:	d9000317 	ldw	r4,12(sp)
 20042e4:	e00b883a 	mov	r5,fp
 20042e8:	018cccf4 	movhi	r6,13107
 20042ec:	318cccc4 	addi	r6,r6,13107
 20042f0:	01cffaf4 	movhi	r7,16363
 20042f4:	39ccccc4 	addi	r7,r7,13107
 20042f8:	200a62c0 	call	200a62c <__muldf3>
 20042fc:	d9000417 	ldw	r4,16(sp)
 2004300:	d9400517 	ldw	r5,20(sp)
 2004304:	018cccf4 	movhi	r6,13107
 2004308:	318cccc4 	addi	r6,r6,13107
 200430c:	01cffaf4 	movhi	r7,16363
 2004310:	39ccccc4 	addi	r7,r7,13107
 2004314:	1839883a 	mov	fp,r3
 2004318:	d8800315 	stw	r2,12(sp)
 200431c:	200a62c0 	call	200a62c <__muldf3>
 2004320:	d9000317 	ldw	r4,12(sp)
 2004324:	0191ebb4 	movhi	r6,18350
 2004328:	31851ec4 	addi	r6,r6,5243
 200432c:	01cfdd34 	movhi	r7,16244
 2004330:	39deb844 	addi	r7,r7,31457
 2004334:	e00b883a 	mov	r5,fp
 2004338:	d8800415 	stw	r2,16(sp)
 200433c:	d8c00515 	stw	r3,20(sp)
 2004340:	200a62c0 	call	200a62c <__muldf3>
 2004344:	180b883a 	mov	r5,r3
 2004348:	1009883a 	mov	r4,r2
 200434c:	20062000 	call	2006200 <pwm_of_force>
 2004350:	11008004 	addi	r4,r2,512
 2004354:	200ac980 	call	200ac98 <__floatsidf>
 2004358:	d9000417 	ldw	r4,16(sp)
 200435c:	d9400517 	ldw	r5,20(sp)
 2004360:	0191ebb4 	movhi	r6,18350
 2004364:	31851ec4 	addi	r6,r6,5243
 2004368:	01cfdd34 	movhi	r7,16244
 200436c:	39deb844 	addi	r7,r7,31457
 2004370:	102f883a 	mov	r23,r2
 2004374:	d8c00815 	stw	r3,32(sp)
 2004378:	200a62c0 	call	200a62c <__muldf3>
 200437c:	180b883a 	mov	r5,r3
 2004380:	1009883a 	mov	r4,r2
 2004384:	20062000 	call	2006200 <pwm_of_force>
 2004388:	11008004 	addi	r4,r2,512
 200438c:	200ac980 	call	200ac98 <__floatsidf>
 2004390:	d9400817 	ldw	r5,32(sp)
 2004394:	b809883a 	mov	r4,r23
 2004398:	000d883a 	mov	r6,zero
 200439c:	000f883a 	mov	r7,zero
 20043a0:	102d883a 	mov	r22,r2
 20043a4:	182b883a 	mov	r21,r3
 20043a8:	ddc00b15 	stw	r23,44(sp)
 20043ac:	d8800915 	stw	r2,36(sp)
 20043b0:	d8c00a15 	stw	r3,40(sp)
 20043b4:	200ab7c0 	call	200ab7c <__gtdf2>
 20043b8:	00814d0e 	bge	zero,r2,20048f0 <calculate_pid+0x2254>
 20043bc:	d9400817 	ldw	r5,32(sp)
 20043c0:	b809883a 	mov	r4,r23
 20043c4:	01a666b4 	movhi	r6,39322
 20043c8:	31a66684 	addi	r6,r6,-26214
 20043cc:	01d022b4 	movhi	r7,16522
 20043d0:	39e66644 	addi	r7,r7,-26215
 20043d4:	200ab7c0 	call	200ab7c <__gtdf2>
 20043d8:	00800e16 	blt	zero,r2,2004414 <calculate_pid+0x1d78>
 20043dc:	b009883a 	mov	r4,r22
 20043e0:	a80b883a 	mov	r5,r21
 20043e4:	000d883a 	mov	r6,zero
 20043e8:	000f883a 	mov	r7,zero
 20043ec:	200ab7c0 	call	200ab7c <__gtdf2>
 20043f0:	00814c0e 	bge	zero,r2,2004924 <calculate_pid+0x2288>
 20043f4:	a80b883a 	mov	r5,r21
 20043f8:	b009883a 	mov	r4,r22
 20043fc:	01a666b4 	movhi	r6,39322
 2004400:	31a66684 	addi	r6,r6,-26214
 2004404:	01d022b4 	movhi	r7,16522
 2004408:	39e66644 	addi	r7,r7,-26215
 200440c:	200ab7c0 	call	200ab7c <__gtdf2>
 2004410:	00b95d0e 	bge	zero,r2,2002988 <calculate_pid+0x2ec>
 2004414:	d9000317 	ldw	r4,12(sp)
 2004418:	e00b883a 	mov	r5,fp
 200441c:	018cccf4 	movhi	r6,13107
 2004420:	318cccc4 	addi	r6,r6,13107
 2004424:	01cffaf4 	movhi	r7,16363
 2004428:	39ccccc4 	addi	r7,r7,13107
 200442c:	200a62c0 	call	200a62c <__muldf3>
 2004430:	d9000417 	ldw	r4,16(sp)
 2004434:	d9400517 	ldw	r5,20(sp)
 2004438:	018cccf4 	movhi	r6,13107
 200443c:	318cccc4 	addi	r6,r6,13107
 2004440:	01cffaf4 	movhi	r7,16363
 2004444:	39ccccc4 	addi	r7,r7,13107
 2004448:	1839883a 	mov	fp,r3
 200444c:	d8800315 	stw	r2,12(sp)
 2004450:	200a62c0 	call	200a62c <__muldf3>
 2004454:	d9000317 	ldw	r4,12(sp)
 2004458:	0191ebb4 	movhi	r6,18350
 200445c:	31851ec4 	addi	r6,r6,5243
 2004460:	01cfdd34 	movhi	r7,16244
 2004464:	39deb844 	addi	r7,r7,31457
 2004468:	e00b883a 	mov	r5,fp
 200446c:	d8800415 	stw	r2,16(sp)
 2004470:	d8c00515 	stw	r3,20(sp)
 2004474:	200a62c0 	call	200a62c <__muldf3>
 2004478:	180b883a 	mov	r5,r3
 200447c:	1009883a 	mov	r4,r2
 2004480:	20062000 	call	2006200 <pwm_of_force>
 2004484:	11008004 	addi	r4,r2,512
 2004488:	200ac980 	call	200ac98 <__floatsidf>
 200448c:	d9000417 	ldw	r4,16(sp)
 2004490:	d9400517 	ldw	r5,20(sp)
 2004494:	0191ebb4 	movhi	r6,18350
 2004498:	31851ec4 	addi	r6,r6,5243
 200449c:	01cfdd34 	movhi	r7,16244
 20044a0:	39deb844 	addi	r7,r7,31457
 20044a4:	102f883a 	mov	r23,r2
 20044a8:	d8c00815 	stw	r3,32(sp)
 20044ac:	200a62c0 	call	200a62c <__muldf3>
 20044b0:	180b883a 	mov	r5,r3
 20044b4:	1009883a 	mov	r4,r2
 20044b8:	20062000 	call	2006200 <pwm_of_force>
 20044bc:	11008004 	addi	r4,r2,512
 20044c0:	200ac980 	call	200ac98 <__floatsidf>
 20044c4:	d9400817 	ldw	r5,32(sp)
 20044c8:	b809883a 	mov	r4,r23
 20044cc:	000d883a 	mov	r6,zero
 20044d0:	000f883a 	mov	r7,zero
 20044d4:	102d883a 	mov	r22,r2
 20044d8:	182b883a 	mov	r21,r3
 20044dc:	ddc00b15 	stw	r23,44(sp)
 20044e0:	d8800915 	stw	r2,36(sp)
 20044e4:	d8c00a15 	stw	r3,40(sp)
 20044e8:	200ab7c0 	call	200ab7c <__gtdf2>
 20044ec:	0081050e 	bge	zero,r2,2004904 <calculate_pid+0x2268>
 20044f0:	d9400817 	ldw	r5,32(sp)
 20044f4:	b809883a 	mov	r4,r23
 20044f8:	01a666b4 	movhi	r6,39322
 20044fc:	31a66684 	addi	r6,r6,-26214
 2004500:	01d022b4 	movhi	r7,16522
 2004504:	39e66644 	addi	r7,r7,-26215
 2004508:	200ab7c0 	call	200ab7c <__gtdf2>
 200450c:	00800e16 	blt	zero,r2,2004548 <calculate_pid+0x1eac>
 2004510:	b009883a 	mov	r4,r22
 2004514:	a80b883a 	mov	r5,r21
 2004518:	000d883a 	mov	r6,zero
 200451c:	000f883a 	mov	r7,zero
 2004520:	200ab7c0 	call	200ab7c <__gtdf2>
 2004524:	0081010e 	bge	zero,r2,200492c <calculate_pid+0x2290>
 2004528:	a80b883a 	mov	r5,r21
 200452c:	b009883a 	mov	r4,r22
 2004530:	01a666b4 	movhi	r6,39322
 2004534:	31a66684 	addi	r6,r6,-26214
 2004538:	01d022b4 	movhi	r7,16522
 200453c:	39e66644 	addi	r7,r7,-26215
 2004540:	200ab7c0 	call	200ab7c <__gtdf2>
 2004544:	00b9100e 	bge	zero,r2,2002988 <calculate_pid+0x2ec>
 2004548:	d9000317 	ldw	r4,12(sp)
 200454c:	e00b883a 	mov	r5,fp
 2004550:	018cccf4 	movhi	r6,13107
 2004554:	318cccc4 	addi	r6,r6,13107
 2004558:	01cffaf4 	movhi	r7,16363
 200455c:	39ccccc4 	addi	r7,r7,13107
 2004560:	200a62c0 	call	200a62c <__muldf3>
 2004564:	d9000417 	ldw	r4,16(sp)
 2004568:	d9400517 	ldw	r5,20(sp)
 200456c:	018cccf4 	movhi	r6,13107
 2004570:	318cccc4 	addi	r6,r6,13107
 2004574:	01cffaf4 	movhi	r7,16363
 2004578:	39ccccc4 	addi	r7,r7,13107
 200457c:	1839883a 	mov	fp,r3
 2004580:	d8800315 	stw	r2,12(sp)
 2004584:	200a62c0 	call	200a62c <__muldf3>
 2004588:	d9000317 	ldw	r4,12(sp)
 200458c:	0191ebb4 	movhi	r6,18350
 2004590:	31851ec4 	addi	r6,r6,5243
 2004594:	01cfdd34 	movhi	r7,16244
 2004598:	39deb844 	addi	r7,r7,31457
 200459c:	e00b883a 	mov	r5,fp
 20045a0:	d8800415 	stw	r2,16(sp)
 20045a4:	d8c00515 	stw	r3,20(sp)
 20045a8:	200a62c0 	call	200a62c <__muldf3>
 20045ac:	180b883a 	mov	r5,r3
 20045b0:	1009883a 	mov	r4,r2
 20045b4:	20062000 	call	2006200 <pwm_of_force>
 20045b8:	11008004 	addi	r4,r2,512
 20045bc:	200ac980 	call	200ac98 <__floatsidf>
 20045c0:	d9000417 	ldw	r4,16(sp)
 20045c4:	d9400517 	ldw	r5,20(sp)
 20045c8:	0191ebb4 	movhi	r6,18350
 20045cc:	31851ec4 	addi	r6,r6,5243
 20045d0:	01cfdd34 	movhi	r7,16244
 20045d4:	39deb844 	addi	r7,r7,31457
 20045d8:	102f883a 	mov	r23,r2
 20045dc:	d8c00815 	stw	r3,32(sp)
 20045e0:	200a62c0 	call	200a62c <__muldf3>
 20045e4:	180b883a 	mov	r5,r3
 20045e8:	1009883a 	mov	r4,r2
 20045ec:	20062000 	call	2006200 <pwm_of_force>
 20045f0:	11008004 	addi	r4,r2,512
 20045f4:	200ac980 	call	200ac98 <__floatsidf>
 20045f8:	d9400817 	ldw	r5,32(sp)
 20045fc:	b809883a 	mov	r4,r23
 2004600:	000d883a 	mov	r6,zero
 2004604:	000f883a 	mov	r7,zero
 2004608:	102b883a 	mov	r21,r2
 200460c:	182d883a 	mov	r22,r3
 2004610:	ddc00b15 	stw	r23,44(sp)
 2004614:	d8800915 	stw	r2,36(sp)
 2004618:	d8c00a15 	stw	r3,40(sp)
 200461c:	200ab7c0 	call	200ab7c <__gtdf2>
 2004620:	0080bd0e 	bge	zero,r2,2004918 <calculate_pid+0x227c>
 2004624:	d9400817 	ldw	r5,32(sp)
 2004628:	b809883a 	mov	r4,r23
 200462c:	01a666b4 	movhi	r6,39322
 2004630:	31a66684 	addi	r6,r6,-26214
 2004634:	01d022b4 	movhi	r7,16522
 2004638:	39e66644 	addi	r7,r7,-26215
 200463c:	200ab7c0 	call	200ab7c <__gtdf2>
 2004640:	00800e16 	blt	zero,r2,200467c <calculate_pid+0x1fe0>
 2004644:	a809883a 	mov	r4,r21
 2004648:	b00b883a 	mov	r5,r22
 200464c:	000d883a 	mov	r6,zero
 2004650:	000f883a 	mov	r7,zero
 2004654:	200ab7c0 	call	200ab7c <__gtdf2>
 2004658:	0080a30e 	bge	zero,r2,20048e8 <calculate_pid+0x224c>
 200465c:	b00b883a 	mov	r5,r22
 2004660:	a809883a 	mov	r4,r21
 2004664:	01a666b4 	movhi	r6,39322
 2004668:	31a66684 	addi	r6,r6,-26214
 200466c:	01d022b4 	movhi	r7,16522
 2004670:	39e66644 	addi	r7,r7,-26215
 2004674:	200ab7c0 	call	200ab7c <__gtdf2>
 2004678:	00b8c30e 	bge	zero,r2,2002988 <calculate_pid+0x2ec>
 200467c:	d9000317 	ldw	r4,12(sp)
 2004680:	018cccf4 	movhi	r6,13107
 2004684:	318cccc4 	addi	r6,r6,13107
 2004688:	01cffaf4 	movhi	r7,16363
 200468c:	39ccccc4 	addi	r7,r7,13107
 2004690:	e00b883a 	mov	r5,fp
 2004694:	200a62c0 	call	200a62c <__muldf3>
 2004698:	0191ebb4 	movhi	r6,18350
 200469c:	31851ec4 	addi	r6,r6,5243
 20046a0:	01cfdd34 	movhi	r7,16244
 20046a4:	39deb844 	addi	r7,r7,31457
 20046a8:	1009883a 	mov	r4,r2
 20046ac:	180b883a 	mov	r5,r3
 20046b0:	200a62c0 	call	200a62c <__muldf3>
 20046b4:	180b883a 	mov	r5,r3
 20046b8:	1009883a 	mov	r4,r2
 20046bc:	20062000 	call	2006200 <pwm_of_force>
 20046c0:	11008004 	addi	r4,r2,512
 20046c4:	200ac980 	call	200ac98 <__floatsidf>
 20046c8:	d9000417 	ldw	r4,16(sp)
 20046cc:	d9400517 	ldw	r5,20(sp)
 20046d0:	018cccf4 	movhi	r6,13107
 20046d4:	318cccc4 	addi	r6,r6,13107
 20046d8:	01cffaf4 	movhi	r7,16363
 20046dc:	39ccccc4 	addi	r7,r7,13107
 20046e0:	102b883a 	mov	r21,r2
 20046e4:	d8c00815 	stw	r3,32(sp)
 20046e8:	200a62c0 	call	200a62c <__muldf3>
 20046ec:	0191ebb4 	movhi	r6,18350
 20046f0:	31851ec4 	addi	r6,r6,5243
 20046f4:	01cfdd34 	movhi	r7,16244
 20046f8:	39deb844 	addi	r7,r7,31457
 20046fc:	1009883a 	mov	r4,r2
 2004700:	180b883a 	mov	r5,r3
 2004704:	200a62c0 	call	200a62c <__muldf3>
 2004708:	1009883a 	mov	r4,r2
 200470c:	180b883a 	mov	r5,r3
 2004710:	20062000 	call	2006200 <pwm_of_force>
 2004714:	11008004 	addi	r4,r2,512
 2004718:	200ac980 	call	200ac98 <__floatsidf>
 200471c:	d8800915 	stw	r2,36(sp)
 2004720:	d8c00a15 	stw	r3,40(sp)
 2004724:	dd400b15 	stw	r21,44(sp)
 2004728:	00389706 	br	2002988 <calculate_pid+0x2ec>
 200472c:	01f019f4 	movhi	r7,49255
 2004730:	39e00004 	addi	r7,r7,-32768
 2004734:	200abe00 	call	200abe0 <__ltdf2>
 2004738:	1038170e 	bge	r2,zero,2002798 <calculate_pid+0xfc>
 200473c:	8809883a 	mov	r4,r17
 2004740:	900b883a 	mov	r5,r18
 2004744:	000d883a 	mov	r6,zero
 2004748:	01d01df4 	movhi	r7,16503
 200474c:	39e00004 	addi	r7,r7,-32768
 2004750:	200a5780 	call	200a578 <__adddf3>
 2004754:	1023883a 	mov	r17,r2
 2004758:	1825883a 	mov	r18,r3
 200475c:	00380e06 	br	2002798 <calculate_pid+0xfc>
 2004760:	8160003c 	xorhi	r5,r16,32768
 2004764:	00391406 	br	2002bb8 <calculate_pid+0x51c>
 2004768:	d8800817 	ldw	r2,32(sp)
 200476c:	1160003c 	xorhi	r5,r2,32768
 2004770:	00387006 	br	2002934 <calculate_pid+0x298>
 2004774:	8160003c 	xorhi	r5,r16,32768
 2004778:	00398306 	br	2002d88 <calculate_pid+0x6ec>
 200477c:	8160003c 	xorhi	r5,r16,32768
 2004780:	0039f506 	br	2002f58 <calculate_pid+0x8bc>
 2004784:	8160003c 	xorhi	r5,r16,32768
 2004788:	003a6906 	br	2003130 <calculate_pid+0xa94>
 200478c:	8160003c 	xorhi	r5,r16,32768
 2004790:	003adb06 	br	2003300 <calculate_pid+0xc64>
 2004794:	8160003c 	xorhi	r5,r16,32768
 2004798:	003b4d06 	br	20034d0 <calculate_pid+0xe34>
 200479c:	8160003c 	xorhi	r5,r16,32768
 20047a0:	003bbf06 	br	20036a0 <calculate_pid+0x1004>
 20047a4:	8160003c 	xorhi	r5,r16,32768
 20047a8:	003c3306 	br	2003878 <calculate_pid+0x11dc>
 20047ac:	8160003c 	xorhi	r5,r16,32768
 20047b0:	003ca706 	br	2003a50 <calculate_pid+0x13b4>
 20047b4:	8160003c 	xorhi	r5,r16,32768
 20047b8:	003d1106 	br	2003c00 <calculate_pid+0x1564>
 20047bc:	0085c83a 	sub	r2,zero,r2
 20047c0:	00387306 	br	2002990 <calculate_pid+0x2f4>
 20047c4:	10800fc4 	addi	r2,r2,63
 20047c8:	0037c606 	br	20026e4 <calculate_pid+0x48>
 20047cc:	d8800817 	ldw	r2,32(sp)
 20047d0:	1160003c 	xorhi	r5,r2,32768
 20047d4:	003d7906 	br	2003dbc <calculate_pid+0x1720>
 20047d8:	d8800817 	ldw	r2,32(sp)
 20047dc:	1160003c 	xorhi	r5,r2,32768
 20047e0:	003dc306 	br	2003ef0 <calculate_pid+0x1854>
 20047e4:	e160003c 	xorhi	r5,fp,32768
 20047e8:	00386006 	br	200296c <calculate_pid+0x2d0>
 20047ec:	d8800217 	ldw	r2,8(sp)
 20047f0:	1160003c 	xorhi	r5,r2,32768
 20047f4:	00390c06 	br	2002c28 <calculate_pid+0x58c>
 20047f8:	d8800217 	ldw	r2,8(sp)
 20047fc:	1160003c 	xorhi	r5,r2,32768
 2004800:	00397d06 	br	2002df8 <calculate_pid+0x75c>
 2004804:	d8800217 	ldw	r2,8(sp)
 2004808:	1160003c 	xorhi	r5,r2,32768
 200480c:	0039ee06 	br	2002fc8 <calculate_pid+0x92c>
 2004810:	d8800217 	ldw	r2,8(sp)
 2004814:	1160003c 	xorhi	r5,r2,32768
 2004818:	003a6106 	br	20031a0 <calculate_pid+0xb04>
 200481c:	d8800217 	ldw	r2,8(sp)
 2004820:	1160003c 	xorhi	r5,r2,32768
 2004824:	003ad206 	br	2003370 <calculate_pid+0xcd4>
 2004828:	d8800217 	ldw	r2,8(sp)
 200482c:	1160003c 	xorhi	r5,r2,32768
 2004830:	003b4306 	br	2003540 <calculate_pid+0xea4>
 2004834:	d8800817 	ldw	r2,32(sp)
 2004838:	1160003c 	xorhi	r5,r2,32768
 200483c:	003e9306 	br	200428c <calculate_pid+0x1bf0>
 2004840:	d8800217 	ldw	r2,8(sp)
 2004844:	1160003c 	xorhi	r5,r2,32768
 2004848:	003bb106 	br	2003710 <calculate_pid+0x1074>
 200484c:	d8800217 	ldw	r2,8(sp)
 2004850:	1160003c 	xorhi	r5,r2,32768
 2004854:	003c2406 	br	20038e8 <calculate_pid+0x124c>
 2004858:	d8800217 	ldw	r2,8(sp)
 200485c:	1160003c 	xorhi	r5,r2,32768
 2004860:	003c9706 	br	2003ac0 <calculate_pid+0x1424>
 2004864:	a960003c 	xorhi	r5,r21,32768
 2004868:	003dfc06 	br	200405c <calculate_pid+0x19c0>
 200486c:	b160003c 	xorhi	r5,r22,32768
 2004870:	0038df06 	br	2002bf0 <calculate_pid+0x554>
 2004874:	b960003c 	xorhi	r5,r23,32768
 2004878:	00395106 	br	2002dc0 <calculate_pid+0x724>
 200487c:	b960003c 	xorhi	r5,r23,32768
 2004880:	0039c306 	br	2002f90 <calculate_pid+0x8f4>
 2004884:	d8800017 	ldw	r2,0(sp)
 2004888:	1160003c 	xorhi	r5,r2,32768
 200488c:	003a3606 	br	2003168 <calculate_pid+0xacc>
 2004890:	e160003c 	xorhi	r5,fp,32768
 2004894:	003aa806 	br	2003338 <calculate_pid+0xc9c>
 2004898:	e160003c 	xorhi	r5,fp,32768
 200489c:	003b1a06 	br	2003508 <calculate_pid+0xe6c>
 20048a0:	b960003c 	xorhi	r5,r23,32768
 20048a4:	003b8c06 	br	20036d8 <calculate_pid+0x103c>
 20048a8:	d8800017 	ldw	r2,0(sp)
 20048ac:	1160003c 	xorhi	r5,r2,32768
 20048b0:	003bff06 	br	20038b0 <calculate_pid+0x1214>
 20048b4:	d8800017 	ldw	r2,0(sp)
 20048b8:	1160003c 	xorhi	r5,r2,32768
 20048bc:	003c7206 	br	2003a88 <calculate_pid+0x13ec>
 20048c0:	d8800817 	ldw	r2,32(sp)
 20048c4:	1160003c 	xorhi	r5,r2,32768
 20048c8:	003dd606 	br	2004024 <calculate_pid+0x1988>
 20048cc:	a960003c 	xorhi	r5,r21,32768
 20048d0:	003d4806 	br	2003df4 <calculate_pid+0x1758>
 20048d4:	d8800817 	ldw	r2,32(sp)
 20048d8:	1160003c 	xorhi	r5,r2,32768
 20048dc:	003e1e06 	br	2004158 <calculate_pid+0x1abc>
 20048e0:	a960003c 	xorhi	r5,r21,32768
 20048e4:	003d9006 	br	2003f28 <calculate_pid+0x188c>
 20048e8:	b160003c 	xorhi	r5,r22,32768
 20048ec:	003f5c06 	br	2004660 <calculate_pid+0x1fc4>
 20048f0:	d8800817 	ldw	r2,32(sp)
 20048f4:	1160003c 	xorhi	r5,r2,32768
 20048f8:	003eb106 	br	20043c0 <calculate_pid+0x1d24>
 20048fc:	a960003c 	xorhi	r5,r21,32768
 2004900:	003e2306 	br	2004190 <calculate_pid+0x1af4>
 2004904:	d8800817 	ldw	r2,32(sp)
 2004908:	1160003c 	xorhi	r5,r2,32768
 200490c:	003ef906 	br	20044f4 <calculate_pid+0x1e58>
 2004910:	a960003c 	xorhi	r5,r21,32768
 2004914:	003e6b06 	br	20042c4 <calculate_pid+0x1c28>
 2004918:	d8800817 	ldw	r2,32(sp)
 200491c:	1160003c 	xorhi	r5,r2,32768
 2004920:	003f4106 	br	2004628 <calculate_pid+0x1f8c>
 2004924:	a960003c 	xorhi	r5,r21,32768
 2004928:	003eb306 	br	20043f8 <calculate_pid+0x1d5c>
 200492c:	a960003c 	xorhi	r5,r21,32768
 2004930:	003efe06 	br	200452c <calculate_pid+0x1e90>

02004934 <print_debug_controller>:
 2004934:	defffc04 	addi	sp,sp,-16
 2004938:	dc000015 	stw	r16,0(sp)
 200493c:	040080b4 	movhi	r16,514
 2004940:	84094a04 	addi	r16,r16,9512
 2004944:	8009883a 	mov	r4,r16
 2004948:	dfc00315 	stw	ra,12(sp)
 200494c:	dc800215 	stw	r18,8(sp)
 2004950:	dc400115 	stw	r17,4(sp)
 2004954:	2005d400 	call	2005d40 <PID_Output>
 2004958:	81000017 	ldw	r4,0(r16)
 200495c:	81400117 	ldw	r5,4(r16)
 2004960:	81800617 	ldw	r6,24(r16)
 2004964:	81c00717 	ldw	r7,28(r16)
 2004968:	1025883a 	mov	r18,r2
 200496c:	1823883a 	mov	r17,r3
 2004970:	200a62c0 	call	200a62c <__muldf3>
 2004974:	180d883a 	mov	r6,r3
 2004978:	010080b4 	movhi	r4,514
 200497c:	21354b04 	addi	r4,r4,-10964
 2004980:	100b883a 	mov	r5,r2
 2004984:	200b8c80 	call	200b8c8 <printf>
 2004988:	81000217 	ldw	r4,8(r16)
 200498c:	81400317 	ldw	r5,12(r16)
 2004990:	81800817 	ldw	r6,32(r16)
 2004994:	81c00917 	ldw	r7,36(r16)
 2004998:	200a62c0 	call	200a62c <__muldf3>
 200499c:	180d883a 	mov	r6,r3
 20049a0:	010080b4 	movhi	r4,514
 20049a4:	21355004 	addi	r4,r4,-10944
 20049a8:	100b883a 	mov	r5,r2
 20049ac:	200b8c80 	call	200b8c8 <printf>
 20049b0:	81000417 	ldw	r4,16(r16)
 20049b4:	81400517 	ldw	r5,20(r16)
 20049b8:	81800a17 	ldw	r6,40(r16)
 20049bc:	81c00b17 	ldw	r7,44(r16)
 20049c0:	200a62c0 	call	200a62c <__muldf3>
 20049c4:	180d883a 	mov	r6,r3
 20049c8:	010080b4 	movhi	r4,514
 20049cc:	21355504 	addi	r4,r4,-10924
 20049d0:	100b883a 	mov	r5,r2
 20049d4:	200b8c80 	call	200b8c8 <printf>
 20049d8:	010080b4 	movhi	r4,514
 20049dc:	21355a04 	addi	r4,r4,-10904
 20049e0:	900b883a 	mov	r5,r18
 20049e4:	880d883a 	mov	r6,r17
 20049e8:	dfc00317 	ldw	ra,12(sp)
 20049ec:	dc800217 	ldw	r18,8(sp)
 20049f0:	dc400117 	ldw	r17,4(sp)
 20049f4:	dc000017 	ldw	r16,0(sp)
 20049f8:	dec00404 	addi	sp,sp,16
 20049fc:	200b8c81 	jmpi	200b8c8 <printf>

02004a00 <timer_interrupts>:
 2004a00:	00c080b4 	movhi	r3,514
 2004a04:	18c96c04 	addi	r3,r3,9648
 2004a08:	008080b4 	movhi	r2,514
 2004a0c:	10896504 	addi	r2,r2,9620
 2004a10:	19400017 	ldw	r5,0(r3)
 2004a14:	11000017 	ldw	r4,0(r2)
 2004a18:	deffff04 	addi	sp,sp,-4
 2004a1c:	dfc00015 	stw	ra,0(sp)
 2004a20:	29004d26 	beq	r5,r4,2004b58 <timer_interrupts+0x158>
 2004a24:	19000117 	ldw	r4,4(r3)
 2004a28:	11800117 	ldw	r6,4(r2)
 2004a2c:	11400015 	stw	r5,0(r2)
 2004a30:	21804426 	beq	r4,r6,2004b44 <timer_interrupts+0x144>
 2004a34:	19400217 	ldw	r5,8(r3)
 2004a38:	11800217 	ldw	r6,8(r2)
 2004a3c:	11000115 	stw	r4,4(r2)
 2004a40:	29803b26 	beq	r5,r6,2004b30 <timer_interrupts+0x130>
 2004a44:	19000317 	ldw	r4,12(r3)
 2004a48:	11800317 	ldw	r6,12(r2)
 2004a4c:	11400215 	stw	r5,8(r2)
 2004a50:	21803226 	beq	r4,r6,2004b1c <timer_interrupts+0x11c>
 2004a54:	19400417 	ldw	r5,16(r3)
 2004a58:	11800417 	ldw	r6,16(r2)
 2004a5c:	11000315 	stw	r4,12(r2)
 2004a60:	29802926 	beq	r5,r6,2004b08 <timer_interrupts+0x108>
 2004a64:	19000517 	ldw	r4,20(r3)
 2004a68:	11800517 	ldw	r6,20(r2)
 2004a6c:	11400415 	stw	r5,16(r2)
 2004a70:	21802026 	beq	r4,r6,2004af4 <timer_interrupts+0xf4>
 2004a74:	18c00617 	ldw	r3,24(r3)
 2004a78:	11400617 	ldw	r5,24(r2)
 2004a7c:	11000515 	stw	r4,20(r2)
 2004a80:	19401726 	beq	r3,r5,2004ae0 <timer_interrupts+0xe0>
 2004a84:	10c00615 	stw	r3,24(r2)
 2004a88:	200045c0 	call	200045c <update_depth_reading>
 2004a8c:	d0a77b17 	ldw	r2,-25108(gp)
 2004a90:	10800044 	addi	r2,r2,1
 2004a94:	d0a77b15 	stw	r2,-25108(gp)
 2004a98:	10800fcc 	andi	r2,r2,63
 2004a9c:	1000021e 	bne	r2,zero,2004aa8 <timer_interrupts+0xa8>
 2004aa0:	00800044 	movi	r2,1
 2004aa4:	d0a77915 	stw	r2,-25116(gp)
 2004aa8:	00825404 	movi	r2,2384
 2004aac:	00c00044 	movi	r3,1
 2004ab0:	10c00035 	stwio	r3,0(r2)
 2004ab4:	00825104 	movi	r2,2372
 2004ab8:	10000035 	stwio	zero,0(r2)
 2004abc:	00c25004 	movi	r3,2368
 2004ac0:	18000035 	stwio	zero,0(r3)
 2004ac4:	d0e77a17 	ldw	r3,-25112(gp)
 2004ac8:	18000226 	beq	r3,zero,2004ad4 <timer_interrupts+0xd4>
 2004acc:	00c001c4 	movi	r3,7
 2004ad0:	10c00035 	stwio	r3,0(r2)
 2004ad4:	dfc00017 	ldw	ra,0(sp)
 2004ad8:	dec00104 	addi	sp,sp,4
 2004adc:	f800283a 	ret
 2004ae0:	00c080b4 	movhi	r3,514
 2004ae4:	18c96c04 	addi	r3,r3,9648
 2004ae8:	18000615 	stw	zero,24(r3)
 2004aec:	0007883a 	mov	r3,zero
 2004af0:	003fe406 	br	2004a84 <timer_interrupts+0x84>
 2004af4:	010080b4 	movhi	r4,514
 2004af8:	21096c04 	addi	r4,r4,9648
 2004afc:	20000515 	stw	zero,20(r4)
 2004b00:	0009883a 	mov	r4,zero
 2004b04:	003fdb06 	br	2004a74 <timer_interrupts+0x74>
 2004b08:	010080b4 	movhi	r4,514
 2004b0c:	21096c04 	addi	r4,r4,9648
 2004b10:	20000415 	stw	zero,16(r4)
 2004b14:	000b883a 	mov	r5,zero
 2004b18:	003fd206 	br	2004a64 <timer_interrupts+0x64>
 2004b1c:	010080b4 	movhi	r4,514
 2004b20:	21096c04 	addi	r4,r4,9648
 2004b24:	20000315 	stw	zero,12(r4)
 2004b28:	0009883a 	mov	r4,zero
 2004b2c:	003fc906 	br	2004a54 <timer_interrupts+0x54>
 2004b30:	010080b4 	movhi	r4,514
 2004b34:	21096c04 	addi	r4,r4,9648
 2004b38:	20000215 	stw	zero,8(r4)
 2004b3c:	000b883a 	mov	r5,zero
 2004b40:	003fc006 	br	2004a44 <timer_interrupts+0x44>
 2004b44:	010080b4 	movhi	r4,514
 2004b48:	21096c04 	addi	r4,r4,9648
 2004b4c:	20000115 	stw	zero,4(r4)
 2004b50:	0009883a 	mov	r4,zero
 2004b54:	003fb706 	br	2004a34 <timer_interrupts+0x34>
 2004b58:	18000015 	stw	zero,0(r3)
 2004b5c:	000b883a 	mov	r5,zero
 2004b60:	003fb006 	br	2004a24 <timer_interrupts+0x24>

02004b64 <pm_interrupt>:
 2004b64:	defffe04 	addi	sp,sp,-8
 2004b68:	01025804 	movi	r4,2400
 2004b6c:	dfc00115 	stw	ra,4(sp)
 2004b70:	dc000015 	stw	r16,0(sp)
 2004b74:	20800037 	ldwio	r2,0(r4)
 2004b78:	01400044 	movi	r5,1
 2004b7c:	10fffec4 	addi	r3,r2,-5
 2004b80:	28c00a2e 	bgeu	r5,r3,2004bac <pm_interrupt+0x48>
 2004b84:	1085883a 	add	r2,r2,r2
 2004b88:	040080b4 	movhi	r16,514
 2004b8c:	84096c04 	addi	r16,r16,9648
 2004b90:	1085883a 	add	r2,r2,r2
 2004b94:	8085883a 	add	r2,r16,r2
 2004b98:	10c00017 	ldw	r3,0(r2)
 2004b9c:	1947883a 	add	r3,r3,r5
 2004ba0:	10c00015 	stw	r3,0(r2)
 2004ba4:	008018c4 	movi	r2,99
 2004ba8:	10c00416 	blt	r2,r3,2004bbc <pm_interrupt+0x58>
 2004bac:	dfc00117 	ldw	ra,4(sp)
 2004bb0:	dc000017 	ldw	r16,0(sp)
 2004bb4:	dec00204 	addi	sp,sp,8
 2004bb8:	f800283a 	ret
 2004bbc:	20000035 	stwio	zero,0(r4)
 2004bc0:	010080b4 	movhi	r4,514
 2004bc4:	21355e04 	addi	r4,r4,-10888
 2004bc8:	2019a7c0 	call	2019a7c <alt_printf>
 2004bcc:	80800017 	ldw	r2,0(r16)
 2004bd0:	1000501e 	bne	r2,zero,2004d14 <pm_interrupt+0x1b0>
 2004bd4:	80800117 	ldw	r2,4(r16)
 2004bd8:	1000171e 	bne	r2,zero,2004c38 <pm_interrupt+0xd4>
 2004bdc:	80800217 	ldw	r2,8(r16)
 2004be0:	1000201e 	bne	r2,zero,2004c64 <pm_interrupt+0x100>
 2004be4:	80800317 	ldw	r2,12(r16)
 2004be8:	1000291e 	bne	r2,zero,2004c90 <pm_interrupt+0x12c>
 2004bec:	80800417 	ldw	r2,16(r16)
 2004bf0:	1000321e 	bne	r2,zero,2004cbc <pm_interrupt+0x158>
 2004bf4:	80800517 	ldw	r2,20(r16)
 2004bf8:	10003b1e 	bne	r2,zero,2004ce8 <pm_interrupt+0x184>
 2004bfc:	80800617 	ldw	r2,24(r16)
 2004c00:	103fea26 	beq	r2,zero,2004bac <pm_interrupt+0x48>
 2004c04:	010080b4 	movhi	r4,514
 2004c08:	21358d04 	addi	r4,r4,-10700
 2004c0c:	2019d040 	call	2019d04 <alt_putstr>
 2004c10:	008080b4 	movhi	r2,514
 2004c14:	10896c04 	addi	r2,r2,9648
 2004c18:	11000617 	ldw	r4,24(r2)
 2004c1c:	20071780 	call	2007178 <print_int>
 2004c20:	010080b4 	movhi	r4,514
 2004c24:	21356904 	addi	r4,r4,-10844
 2004c28:	dfc00117 	ldw	ra,4(sp)
 2004c2c:	dc000017 	ldw	r16,0(sp)
 2004c30:	dec00204 	addi	sp,sp,8
 2004c34:	2019d041 	jmpi	2019d04 <alt_putstr>
 2004c38:	010080b4 	movhi	r4,514
 2004c3c:	21356b04 	addi	r4,r4,-10836
 2004c40:	2019d040 	call	2019d04 <alt_putstr>
 2004c44:	008080b4 	movhi	r2,514
 2004c48:	10896c04 	addi	r2,r2,9648
 2004c4c:	11000117 	ldw	r4,4(r2)
 2004c50:	20071780 	call	2007178 <print_int>
 2004c54:	010080b4 	movhi	r4,514
 2004c58:	21356904 	addi	r4,r4,-10844
 2004c5c:	2019d040 	call	2019d04 <alt_putstr>
 2004c60:	003fde06 	br	2004bdc <pm_interrupt+0x78>
 2004c64:	010080b4 	movhi	r4,514
 2004c68:	21357204 	addi	r4,r4,-10808
 2004c6c:	2019d040 	call	2019d04 <alt_putstr>
 2004c70:	008080b4 	movhi	r2,514
 2004c74:	10896c04 	addi	r2,r2,9648
 2004c78:	11000217 	ldw	r4,8(r2)
 2004c7c:	20071780 	call	2007178 <print_int>
 2004c80:	010080b4 	movhi	r4,514
 2004c84:	21356904 	addi	r4,r4,-10844
 2004c88:	2019d040 	call	2019d04 <alt_putstr>
 2004c8c:	003fd506 	br	2004be4 <pm_interrupt+0x80>
 2004c90:	010080b4 	movhi	r4,514
 2004c94:	21357904 	addi	r4,r4,-10780
 2004c98:	2019d040 	call	2019d04 <alt_putstr>
 2004c9c:	008080b4 	movhi	r2,514
 2004ca0:	10896c04 	addi	r2,r2,9648
 2004ca4:	11000317 	ldw	r4,12(r2)
 2004ca8:	20071780 	call	2007178 <print_int>
 2004cac:	010080b4 	movhi	r4,514
 2004cb0:	21356904 	addi	r4,r4,-10844
 2004cb4:	2019d040 	call	2019d04 <alt_putstr>
 2004cb8:	003fcc06 	br	2004bec <pm_interrupt+0x88>
 2004cbc:	010080b4 	movhi	r4,514
 2004cc0:	21357f04 	addi	r4,r4,-10756
 2004cc4:	2019d040 	call	2019d04 <alt_putstr>
 2004cc8:	008080b4 	movhi	r2,514
 2004ccc:	10896c04 	addi	r2,r2,9648
 2004cd0:	11000417 	ldw	r4,16(r2)
 2004cd4:	20071780 	call	2007178 <print_int>
 2004cd8:	010080b4 	movhi	r4,514
 2004cdc:	21356904 	addi	r4,r4,-10844
 2004ce0:	2019d040 	call	2019d04 <alt_putstr>
 2004ce4:	003fc306 	br	2004bf4 <pm_interrupt+0x90>
 2004ce8:	010080b4 	movhi	r4,514
 2004cec:	21358604 	addi	r4,r4,-10728
 2004cf0:	2019d040 	call	2019d04 <alt_putstr>
 2004cf4:	008080b4 	movhi	r2,514
 2004cf8:	10896c04 	addi	r2,r2,9648
 2004cfc:	11000517 	ldw	r4,20(r2)
 2004d00:	20071780 	call	2007178 <print_int>
 2004d04:	010080b4 	movhi	r4,514
 2004d08:	21356904 	addi	r4,r4,-10844
 2004d0c:	2019d040 	call	2019d04 <alt_putstr>
 2004d10:	003fba06 	br	2004bfc <pm_interrupt+0x98>
 2004d14:	010080b4 	movhi	r4,514
 2004d18:	21356204 	addi	r4,r4,-10872
 2004d1c:	2019d040 	call	2019d04 <alt_putstr>
 2004d20:	81000017 	ldw	r4,0(r16)
 2004d24:	20071780 	call	2007178 <print_int>
 2004d28:	010080b4 	movhi	r4,514
 2004d2c:	21356904 	addi	r4,r4,-10844
 2004d30:	2019d040 	call	2019d04 <alt_putstr>
 2004d34:	003fa706 	br	2004bd4 <pm_interrupt+0x70>

02004d38 <get_user_depth>:
 2004d38:	d0a77a17 	ldw	r2,-25112(gp)
 2004d3c:	1000011e 	bne	r2,zero,2004d44 <get_user_depth+0xc>
 2004d40:	200745c1 	jmpi	200745c <get_depth>
 2004d44:	20004d01 	jmpi	20004d0 <get_average_depth>

02004d48 <set_controller>:
 2004d48:	defffa04 	addi	sp,sp,-24
 2004d4c:	dfc00515 	stw	ra,20(sp)
 2004d50:	d1277a15 	stw	r4,-25112(gp)
 2004d54:	2000141e 	bne	r4,zero,2004da8 <set_controller+0x60>
 2004d58:	01408004 	movi	r5,512
 2004d5c:	200725c0 	call	200725c <set_motor_duty_cycle>
 2004d60:	01000044 	movi	r4,1
 2004d64:	01408004 	movi	r5,512
 2004d68:	200725c0 	call	200725c <set_motor_duty_cycle>
 2004d6c:	01000084 	movi	r4,2
 2004d70:	01408004 	movi	r5,512
 2004d74:	200725c0 	call	200725c <set_motor_duty_cycle>
 2004d78:	010000c4 	movi	r4,3
 2004d7c:	01408004 	movi	r5,512
 2004d80:	200725c0 	call	200725c <set_motor_duty_cycle>
 2004d84:	01000104 	movi	r4,4
 2004d88:	01408004 	movi	r5,512
 2004d8c:	200725c0 	call	200725c <set_motor_duty_cycle>
 2004d90:	01000144 	movi	r4,5
 2004d94:	01408004 	movi	r5,512
 2004d98:	200725c0 	call	200725c <set_motor_duty_cycle>
 2004d9c:	dfc00517 	ldw	ra,20(sp)
 2004da0:	dec00604 	addi	sp,sp,24
 2004da4:	f800283a 	ret
 2004da8:	d809883a 	mov	r4,sp
 2004dac:	20065080 	call	2006508 <get_imu_orientation>
 2004db0:	0009883a 	mov	r4,zero
 2004db4:	200042c0 	call	200042c <set_target_speed>
 2004db8:	d9000017 	ldw	r4,0(sp)
 2004dbc:	200043c0 	call	200043c <set_target_heading>
 2004dc0:	200745c0 	call	200745c <get_depth>
 2004dc4:	1009883a 	mov	r4,r2
 2004dc8:	200044c0 	call	200044c <set_target_depth>
 2004dcc:	00825104 	movi	r2,2372
 2004dd0:	00c001c4 	movi	r3,7
 2004dd4:	10c00035 	stwio	r3,0(r2)
 2004dd8:	dfc00517 	ldw	ra,20(sp)
 2004ddc:	dec00604 	addi	sp,sp,24
 2004de0:	f800283a 	ret

02004de4 <init_interrupts>:
 2004de4:	defffd04 	addi	sp,sp,-12
 2004de8:	d8000015 	stw	zero,0(sp)
 2004dec:	0009883a 	mov	r4,zero
 2004df0:	000b883a 	mov	r5,zero
 2004df4:	01808034 	movhi	r6,512
 2004df8:	3192d904 	addi	r6,r6,19300
 2004dfc:	000f883a 	mov	r7,zero
 2004e00:	dfc00215 	stw	ra,8(sp)
 2004e04:	dc000115 	stw	r16,4(sp)
 2004e08:	20193f80 	call	20193f8 <alt_ic_isr_register>
 2004e0c:	04000084 	movi	r16,2
 2004e10:	d8000015 	stw	zero,0(sp)
 2004e14:	0009883a 	mov	r4,zero
 2004e18:	800b883a 	mov	r5,r16
 2004e1c:	01808034 	movhi	r6,512
 2004e20:	31928004 	addi	r6,r6,18944
 2004e24:	000f883a 	mov	r7,zero
 2004e28:	20193f80 	call	20193f8 <alt_ic_isr_register>
 2004e2c:	00825104 	movi	r2,2372
 2004e30:	10000035 	stwio	zero,0(r2)
 2004e34:	14000035 	stwio	r16,0(r2)
 2004e38:	00c25204 	movi	r3,2376
 2004e3c:	01262584 	movi	r4,-26474
 2004e40:	19000035 	stwio	r4,0(r3)
 2004e44:	00c25304 	movi	r3,2380
 2004e48:	18000035 	stwio	zero,0(r3)
 2004e4c:	00c000c4 	movi	r3,3
 2004e50:	10c00035 	stwio	r3,0(r2)
 2004e54:	d0e77a17 	ldw	r3,-25112(gp)
 2004e58:	18000226 	beq	r3,zero,2004e64 <init_interrupts+0x80>
 2004e5c:	00c001c4 	movi	r3,7
 2004e60:	10c00035 	stwio	r3,0(r2)
 2004e64:	dfc00217 	ldw	ra,8(sp)
 2004e68:	dc000117 	ldw	r16,4(sp)
 2004e6c:	dec00304 	addi	sp,sp,12
 2004e70:	f800283a 	ret

02004e74 <print_help>:
 2004e74:	defffa04 	addi	sp,sp,-24
 2004e78:	dc400115 	stw	r17,4(sp)
 2004e7c:	dfc00515 	stw	ra,20(sp)
 2004e80:	dd000415 	stw	r20,16(sp)
 2004e84:	dcc00315 	stw	r19,12(sp)
 2004e88:	dc800215 	stw	r18,8(sp)
 2004e8c:	dc000015 	stw	r16,0(sp)
 2004e90:	20c00007 	ldb	r3,0(r4)
 2004e94:	00800804 	movi	r2,32
 2004e98:	2023883a 	mov	r17,r4
 2004e9c:	1880031e 	bne	r3,r2,2004eac <print_help+0x38>
 2004ea0:	8c400044 	addi	r17,r17,1
 2004ea4:	88800007 	ldb	r2,0(r17)
 2004ea8:	10fffd26 	beq	r2,r3,2004ea0 <print_help+0x2c>
 2004eac:	010080b4 	movhi	r4,514
 2004eb0:	21359404 	addi	r4,r4,-10672
 2004eb4:	200b9880 	call	200b988 <puts>
 2004eb8:	8809883a 	mov	r4,r17
 2004ebc:	200bc000 	call	200bc00 <strlen>
 2004ec0:	14ffffc4 	addi	r19,r2,-1
 2004ec4:	98001916 	blt	r19,zero,2004f2c <print_help+0xb8>
 2004ec8:	040080b4 	movhi	r16,514
 2004ecc:	8439e604 	addi	r16,r16,-6248
 2004ed0:	84800204 	addi	r18,r16,8
 2004ed4:	85004804 	addi	r20,r16,288
 2004ed8:	00000206 	br	2004ee4 <print_help+0x70>
 2004edc:	94800304 	addi	r18,r18,12
 2004ee0:	85000a26 	beq	r16,r20,2004f0c <print_help+0x98>
 2004ee4:	81400017 	ldw	r5,0(r16)
 2004ee8:	8809883a 	mov	r4,r17
 2004eec:	980d883a 	mov	r6,r19
 2004ef0:	200bc8c0 	call	200bc8c <strncmp>
 2004ef4:	84000304 	addi	r16,r16,12
 2004ef8:	103ff81e 	bne	r2,zero,2004edc <print_help+0x68>
 2004efc:	91000017 	ldw	r4,0(r18)
 2004f00:	94800304 	addi	r18,r18,12
 2004f04:	200b9880 	call	200b988 <puts>
 2004f08:	853ff61e 	bne	r16,r20,2004ee4 <print_help+0x70>
 2004f0c:	dfc00517 	ldw	ra,20(sp)
 2004f10:	dd000417 	ldw	r20,16(sp)
 2004f14:	dcc00317 	ldw	r19,12(sp)
 2004f18:	dc800217 	ldw	r18,8(sp)
 2004f1c:	dc400117 	ldw	r17,4(sp)
 2004f20:	dc000017 	ldw	r16,0(sp)
 2004f24:	dec00604 	addi	sp,sp,24
 2004f28:	f800283a 	ret
 2004f2c:	0027883a 	mov	r19,zero
 2004f30:	003fe506 	br	2004ec8 <print_help+0x54>

02004f34 <process_command>:
 2004f34:	deffe304 	addi	sp,sp,-116
 2004f38:	dd801a15 	stw	r22,104(sp)
 2004f3c:	058080b4 	movhi	r22,514
 2004f40:	b5b9e604 	addi	r22,r22,-6248
 2004f44:	ddc01b15 	stw	r23,108(sp)
 2004f48:	dd401915 	stw	r21,100(sp)
 2004f4c:	dd001815 	stw	r20,96(sp)
 2004f50:	dc801615 	stw	r18,88(sp)
 2004f54:	dc401515 	stw	r17,84(sp)
 2004f58:	dfc01c15 	stw	ra,112(sp)
 2004f5c:	dcc01715 	stw	r19,92(sp)
 2004f60:	dc001415 	stw	r16,80(sp)
 2004f64:	2029883a 	mov	r20,r4
 2004f68:	b02f883a 	mov	r23,r22
 2004f6c:	b023883a 	mov	r17,r22
 2004f70:	0025883a 	mov	r18,zero
 2004f74:	05400604 	movi	r21,24
 2004f78:	00000306 	br	2004f88 <process_command+0x54>
 2004f7c:	94800044 	addi	r18,r18,1
 2004f80:	8c400304 	addi	r17,r17,12
 2004f84:	95405326 	beq	r18,r21,20050d4 <process_command+0x1a0>
 2004f88:	8c000017 	ldw	r16,0(r17)
 2004f8c:	8009883a 	mov	r4,r16
 2004f90:	200bc000 	call	200bc00 <strlen>
 2004f94:	a009883a 	mov	r4,r20
 2004f98:	800b883a 	mov	r5,r16
 2004f9c:	100d883a 	mov	r6,r2
 2004fa0:	1027883a 	mov	r19,r2
 2004fa4:	200bc8c0 	call	200bc8c <strncmp>
 2004fa8:	103ff41e 	bne	r2,zero,2004f7c <process_command+0x48>
 2004fac:	9009883a 	mov	r4,r18
 2004fb0:	01400304 	movi	r5,12
 2004fb4:	200b0080 	call	200b008 <__mulsi3>
 2004fb8:	b885883a 	add	r2,r23,r2
 2004fbc:	10800117 	ldw	r2,4(r2)
 2004fc0:	00c00604 	movi	r3,24
 2004fc4:	a4e9883a 	add	r20,r20,r19
 2004fc8:	18800b2e 	bgeu	r3,r2,2004ff8 <process_command+0xc4>
 2004fcc:	dfc01c17 	ldw	ra,112(sp)
 2004fd0:	ddc01b17 	ldw	r23,108(sp)
 2004fd4:	dd801a17 	ldw	r22,104(sp)
 2004fd8:	dd401917 	ldw	r21,100(sp)
 2004fdc:	dd001817 	ldw	r20,96(sp)
 2004fe0:	dcc01717 	ldw	r19,92(sp)
 2004fe4:	dc801617 	ldw	r18,88(sp)
 2004fe8:	dc401517 	ldw	r17,84(sp)
 2004fec:	dc001417 	ldw	r16,80(sp)
 2004ff0:	dec01d04 	addi	sp,sp,116
 2004ff4:	f800283a 	ret
 2004ff8:	100490ba 	slli	r2,r2,2
 2004ffc:	00c08034 	movhi	r3,512
 2005000:	18d40404 	addi	r3,r3,20496
 2005004:	10c5883a 	add	r2,r2,r3
 2005008:	10800017 	ldw	r2,0(r2)
 200500c:	1000683a 	jmp	r2
 2005010:	020050d4 	movui	r8,323
 2005014:	02005148 	cmpgei	r8,zero,325
 2005018:	02005188 	cmpgei	r8,zero,326
 200501c:	020051c8 	cmpgei	r8,zero,327
 2005020:	02005284 	movi	r8,330
 2005024:	020051f4 	movhi	r8,327
 2005028:	02005234 	movhi	r8,328
 200502c:	020052c4 	movi	r8,331
 2005030:	02005680 	call	200568 <__alt_mem_sdram-0x1dffa98>
 2005034:	02005628 	cmpgeui	r8,zero,344
 2005038:	02005664 	muli	r8,zero,345
 200503c:	02005470 	cmpltui	r8,zero,337
 2005040:	0200548c 	andi	r8,zero,338
 2005044:	020054a8 	cmpgeui	r8,zero,338
 2005048:	020054c0 	call	20054c <__alt_mem_sdram-0x1dffab4>
 200504c:	02005364 	muli	r8,zero,333
 2005050:	020053d8 	cmpnei	r8,zero,335
 2005054:	020053ec 	andhi	r8,zero,335
 2005058:	02005400 	call	200540 <__alt_mem_sdram-0x1dffac0>
 200505c:	02005428 	cmpgeui	r8,zero,336
 2005060:	0200545c 	xori	r8,zero,337
 2005064:	020056fc 	xorhi	r8,zero,347
 2005068:	0200575c 	xori	r8,zero,349
 200506c:	02005074 	movhi	r8,321
 2005070:	020050e8 	cmpgeui	r8,zero,323
 2005074:	d8800b04 	addi	r2,sp,44
 2005078:	d8800015 	stw	r2,0(sp)
 200507c:	d8800904 	addi	r2,sp,36
 2005080:	a009883a 	mov	r4,r20
 2005084:	d9800f04 	addi	r6,sp,60
 2005088:	d9c00d04 	addi	r7,sp,52
 200508c:	d8800115 	stw	r2,4(sp)
 2005090:	014080b4 	movhi	r5,514
 2005094:	29760204 	addi	r5,r5,-10232
 2005098:	200ba680 	call	200ba68 <sscanf>
 200509c:	d8800b17 	ldw	r2,44(sp)
 20050a0:	d9000f17 	ldw	r4,60(sp)
 20050a4:	d9401017 	ldw	r5,64(sp)
 20050a8:	d8800015 	stw	r2,0(sp)
 20050ac:	d8800c17 	ldw	r2,48(sp)
 20050b0:	d9800d17 	ldw	r6,52(sp)
 20050b4:	d9c00e17 	ldw	r7,56(sp)
 20050b8:	d8800115 	stw	r2,4(sp)
 20050bc:	d8800917 	ldw	r2,36(sp)
 20050c0:	d8800215 	stw	r2,8(sp)
 20050c4:	d8800a17 	ldw	r2,40(sp)
 20050c8:	d8800315 	stw	r2,12(sp)
 20050cc:	20008a00 	call	20008a0 <set_pid_constants_roll>
 20050d0:	003fbe06 	br	2004fcc <process_command+0x98>
 20050d4:	010080b4 	movhi	r4,514
 20050d8:	21359c04 	addi	r4,r4,-10640
 20050dc:	a00b883a 	mov	r5,r20
 20050e0:	200b8c80 	call	200b8c8 <printf>
 20050e4:	003fb906 	br	2004fcc <process_command+0x98>
 20050e8:	d8800b04 	addi	r2,sp,44
 20050ec:	d8800015 	stw	r2,0(sp)
 20050f0:	d8800904 	addi	r2,sp,36
 20050f4:	a009883a 	mov	r4,r20
 20050f8:	d9800f04 	addi	r6,sp,60
 20050fc:	d9c00d04 	addi	r7,sp,52
 2005100:	014080b4 	movhi	r5,514
 2005104:	29760204 	addi	r5,r5,-10232
 2005108:	d8800115 	stw	r2,4(sp)
 200510c:	200ba680 	call	200ba68 <sscanf>
 2005110:	d8800b17 	ldw	r2,44(sp)
 2005114:	d9000f17 	ldw	r4,60(sp)
 2005118:	d9401017 	ldw	r5,64(sp)
 200511c:	d8800015 	stw	r2,0(sp)
 2005120:	d8800c17 	ldw	r2,48(sp)
 2005124:	d9800d17 	ldw	r6,52(sp)
 2005128:	d9c00e17 	ldw	r7,56(sp)
 200512c:	d8800115 	stw	r2,4(sp)
 2005130:	d8800917 	ldw	r2,36(sp)
 2005134:	d8800215 	stw	r2,8(sp)
 2005138:	d8800a17 	ldw	r2,40(sp)
 200513c:	d8800315 	stw	r2,12(sp)
 2005140:	200094c0 	call	200094c <set_pid_constants_yaw>
 2005144:	003fa106 	br	2004fcc <process_command+0x98>
 2005148:	a009883a 	mov	r4,r20
 200514c:	20070c40 	call	20070c4 <read_hex>
 2005150:	00c00284 	movi	r3,10
 2005154:	10c1a326 	beq	r2,r3,20057e4 <process_command+0x8b0>
 2005158:	00c00144 	movi	r3,5
 200515c:	18819736 	bltu	r3,r2,20057bc <process_command+0x888>
 2005160:	1009883a 	mov	r4,r2
 2005164:	01400084 	movi	r5,2
 2005168:	d8801315 	stw	r2,76(sp)
 200516c:	20071940 	call	2007194 <set_motor_dir>
 2005170:	d8801317 	ldw	r2,76(sp)
 2005174:	010080b4 	movhi	r4,514
 2005178:	2135c804 	addi	r4,r4,-10464
 200517c:	100b883a 	mov	r5,r2
 2005180:	200b8c80 	call	200b8c8 <printf>
 2005184:	003f9106 	br	2004fcc <process_command+0x98>
 2005188:	a009883a 	mov	r4,r20
 200518c:	20070c40 	call	20070c4 <read_hex>
 2005190:	00c00284 	movi	r3,10
 2005194:	10c21426 	beq	r2,r3,20059e8 <process_command+0xab4>
 2005198:	00c00144 	movi	r3,5
 200519c:	18818736 	bltu	r3,r2,20057bc <process_command+0x888>
 20051a0:	1009883a 	mov	r4,r2
 20051a4:	014000c4 	movi	r5,3
 20051a8:	d8801315 	stw	r2,76(sp)
 20051ac:	20071940 	call	2007194 <set_motor_dir>
 20051b0:	d8801317 	ldw	r2,76(sp)
 20051b4:	010080b4 	movhi	r4,514
 20051b8:	2135d004 	addi	r4,r4,-10432
 20051bc:	100b883a 	mov	r5,r2
 20051c0:	200b8c80 	call	200b8c8 <printf>
 20051c4:	003f8106 	br	2004fcc <process_command+0x98>
 20051c8:	0009883a 	mov	r4,zero
 20051cc:	200042c0 	call	200042c <set_target_speed>
 20051d0:	0009883a 	mov	r4,zero
 20051d4:	200043c0 	call	200043c <set_target_heading>
 20051d8:	200745c0 	call	200745c <get_depth>
 20051dc:	1009883a 	mov	r4,r2
 20051e0:	200044c0 	call	200044c <set_target_depth>
 20051e4:	010080b4 	movhi	r4,514
 20051e8:	2135b704 	addi	r4,r4,-10532
 20051ec:	200b9880 	call	200b988 <puts>
 20051f0:	003f7606 	br	2004fcc <process_command+0x98>
 20051f4:	a009883a 	mov	r4,r20
 20051f8:	20070c40 	call	20070c4 <read_hex>
 20051fc:	00c00284 	movi	r3,10
 2005200:	10c1ce26 	beq	r2,r3,200593c <process_command+0xa08>
 2005204:	00c00144 	movi	r3,5
 2005208:	18816c36 	bltu	r3,r2,20057bc <process_command+0x888>
 200520c:	1009883a 	mov	r4,r2
 2005210:	01400044 	movi	r5,1
 2005214:	d8801315 	stw	r2,76(sp)
 2005218:	20071940 	call	2007194 <set_motor_dir>
 200521c:	d8801317 	ldw	r2,76(sp)
 2005220:	010080b4 	movhi	r4,514
 2005224:	2135c304 	addi	r4,r4,-10484
 2005228:	100b883a 	mov	r5,r2
 200522c:	200b8c80 	call	200b8c8 <printf>
 2005230:	003f6606 	br	2004fcc <process_command+0x98>
 2005234:	a009883a 	mov	r4,r20
 2005238:	20070c40 	call	20070c4 <read_hex>
 200523c:	1021883a 	mov	r16,r2
 2005240:	00800284 	movi	r2,10
 2005244:	80821926 	beq	r16,r2,2005aac <process_command+0xb78>
 2005248:	00800144 	movi	r2,5
 200524c:	14015b36 	bltu	r2,r16,20057bc <process_command+0x888>
 2005250:	a1000084 	addi	r4,r20,2
 2005254:	20070c40 	call	20070c4 <read_hex>
 2005258:	1023883a 	mov	r17,r2
 200525c:	10020f16 	blt	r2,zero,2005a9c <process_command+0xb68>
 2005260:	8009883a 	mov	r4,r16
 2005264:	100b883a 	mov	r5,r2
 2005268:	200725c0 	call	200725c <set_motor_duty_cycle>
 200526c:	010080b4 	movhi	r4,514
 2005270:	2135de04 	addi	r4,r4,-10376
 2005274:	800b883a 	mov	r5,r16
 2005278:	880d883a 	mov	r6,r17
 200527c:	200b8c80 	call	200b8c8 <printf>
 2005280:	003f5206 	br	2004fcc <process_command+0x98>
 2005284:	a009883a 	mov	r4,r20
 2005288:	20070c40 	call	20070c4 <read_hex>
 200528c:	00c00284 	movi	r3,10
 2005290:	10c17f26 	beq	r2,r3,2005890 <process_command+0x95c>
 2005294:	00c00144 	movi	r3,5
 2005298:	18814836 	bltu	r3,r2,20057bc <process_command+0x888>
 200529c:	1009883a 	mov	r4,r2
 20052a0:	000b883a 	mov	r5,zero
 20052a4:	d8801315 	stw	r2,76(sp)
 20052a8:	20071940 	call	2007194 <set_motor_dir>
 20052ac:	d8801317 	ldw	r2,76(sp)
 20052b0:	010080b4 	movhi	r4,514
 20052b4:	2135ba04 	addi	r4,r4,-10520
 20052b8:	100b883a 	mov	r5,r2
 20052bc:	200b8c80 	call	200b8c8 <printf>
 20052c0:	003f4206 	br	2004fcc <process_command+0x98>
 20052c4:	a009883a 	mov	r4,r20
 20052c8:	20070c40 	call	20070c4 <read_hex>
 20052cc:	1009883a 	mov	r4,r2
 20052d0:	1021883a 	mov	r16,r2
 20052d4:	20073700 	call	2007370 <set_pwm_freq>
 20052d8:	800b883a 	mov	r5,r16
 20052dc:	010080b4 	movhi	r4,514
 20052e0:	2135e704 	addi	r4,r4,-10340
 20052e4:	200b8c80 	call	200b8c8 <printf>
 20052e8:	0009883a 	mov	r4,zero
 20052ec:	20073dc0 	call	20073dc <get_motor_duty_cycle>
 20052f0:	100b883a 	mov	r5,r2
 20052f4:	0009883a 	mov	r4,zero
 20052f8:	200725c0 	call	200725c <set_motor_duty_cycle>
 20052fc:	01000044 	movi	r4,1
 2005300:	20073dc0 	call	20073dc <get_motor_duty_cycle>
 2005304:	100b883a 	mov	r5,r2
 2005308:	01000044 	movi	r4,1
 200530c:	200725c0 	call	200725c <set_motor_duty_cycle>
 2005310:	01000084 	movi	r4,2
 2005314:	20073dc0 	call	20073dc <get_motor_duty_cycle>
 2005318:	100b883a 	mov	r5,r2
 200531c:	01000084 	movi	r4,2
 2005320:	200725c0 	call	200725c <set_motor_duty_cycle>
 2005324:	010000c4 	movi	r4,3
 2005328:	20073dc0 	call	20073dc <get_motor_duty_cycle>
 200532c:	100b883a 	mov	r5,r2
 2005330:	010000c4 	movi	r4,3
 2005334:	200725c0 	call	200725c <set_motor_duty_cycle>
 2005338:	01000104 	movi	r4,4
 200533c:	20073dc0 	call	20073dc <get_motor_duty_cycle>
 2005340:	100b883a 	mov	r5,r2
 2005344:	01000104 	movi	r4,4
 2005348:	200725c0 	call	200725c <set_motor_duty_cycle>
 200534c:	01000144 	movi	r4,5
 2005350:	20073dc0 	call	20073dc <get_motor_duty_cycle>
 2005354:	01000144 	movi	r4,5
 2005358:	100b883a 	mov	r5,r2
 200535c:	200725c0 	call	200725c <set_motor_duty_cycle>
 2005360:	003f1a06 	br	2004fcc <process_command+0x98>
 2005364:	a0c00047 	ldb	r3,1(r20)
 2005368:	00800804 	movi	r2,32
 200536c:	a5000044 	addi	r20,r20,1
 2005370:	1880031e 	bne	r3,r2,2005380 <process_command+0x44c>
 2005374:	a5000044 	addi	r20,r20,1
 2005378:	a0800007 	ldb	r2,0(r20)
 200537c:	10fffd26 	beq	r2,r3,2005374 <process_command+0x440>
 2005380:	010080b4 	movhi	r4,514
 2005384:	21359404 	addi	r4,r4,-10672
 2005388:	200b9880 	call	200b988 <puts>
 200538c:	a009883a 	mov	r4,r20
 2005390:	200bc000 	call	200bc00 <strlen>
 2005394:	147fffc4 	addi	r17,r2,-1
 2005398:	8801be16 	blt	r17,zero,2005a94 <process_command+0xb60>
 200539c:	040080b4 	movhi	r16,514
 20053a0:	8439e804 	addi	r16,r16,-6240
 20053a4:	84804604 	addi	r18,r16,280
 20053a8:	00000306 	br	20053b8 <process_command+0x484>
 20053ac:	b5800304 	addi	r22,r22,12
 20053b0:	84000304 	addi	r16,r16,12
 20053b4:	b4bf0526 	beq	r22,r18,2004fcc <process_command+0x98>
 20053b8:	b1400017 	ldw	r5,0(r22)
 20053bc:	a009883a 	mov	r4,r20
 20053c0:	880d883a 	mov	r6,r17
 20053c4:	200bc8c0 	call	200bc8c <strncmp>
 20053c8:	103ff81e 	bne	r2,zero,20053ac <process_command+0x478>
 20053cc:	81000017 	ldw	r4,0(r16)
 20053d0:	200b9880 	call	200b988 <puts>
 20053d4:	003ff506 	br	20053ac <process_command+0x478>
 20053d8:	a009883a 	mov	r4,r20
 20053dc:	20070c40 	call	20070c4 <read_hex>
 20053e0:	1009883a 	mov	r4,r2
 20053e4:	200042c0 	call	200042c <set_target_speed>
 20053e8:	003ef806 	br	2004fcc <process_command+0x98>
 20053ec:	a009883a 	mov	r4,r20
 20053f0:	20070c40 	call	20070c4 <read_hex>
 20053f4:	1009883a 	mov	r4,r2
 20053f8:	200043c0 	call	200043c <set_target_heading>
 20053fc:	003ef306 	br	2004fcc <process_command+0x98>
 2005400:	a009883a 	mov	r4,r20
 2005404:	20070c40 	call	20070c4 <read_hex>
 2005408:	1009883a 	mov	r4,r2
 200540c:	1021883a 	mov	r16,r2
 2005410:	200044c0 	call	200044c <set_target_depth>
 2005414:	010080b4 	movhi	r4,514
 2005418:	2135ee04 	addi	r4,r4,-10312
 200541c:	800b883a 	mov	r5,r16
 2005420:	200b8c80 	call	200b8c8 <printf>
 2005424:	003ee906 	br	2004fcc <process_command+0x98>
 2005428:	a009883a 	mov	r4,r20
 200542c:	20070c40 	call	20070c4 <read_hex>
 2005430:	1021883a 	mov	r16,r2
 2005434:	1009883a 	mov	r4,r2
 2005438:	8400004c 	andi	r16,r16,1
 200543c:	2004d480 	call	2004d48 <set_controller>
 2005440:	8000e526 	beq	r16,zero,20057d8 <process_command+0x8a4>
 2005444:	014080b4 	movhi	r5,514
 2005448:	29759b04 	addi	r5,r5,-10644
 200544c:	010080b4 	movhi	r4,514
 2005450:	2135f504 	addi	r4,r4,-10284
 2005454:	200b8c80 	call	200b8c8 <printf>
 2005458:	003edc06 	br	2004fcc <process_command+0x98>
 200545c:	010080b4 	movhi	r4,514
 2005460:	2135fb04 	addi	r4,r4,-10260
 2005464:	200b9880 	call	200b988 <puts>
 2005468:	20065780 	call	2006578 <rs232_shell>
 200546c:	003ed706 	br	2004fcc <process_command+0x98>
 2005470:	d9001104 	addi	r4,sp,68
 2005474:	20074680 	call	2007468 <get_accel>
 2005478:	d900118f 	ldh	r4,70(sp)
 200547c:	20071780 	call	2007178 <print_int>
 2005480:	01000284 	movi	r4,10
 2005484:	2019cc00 	call	2019cc0 <alt_putchar>
 2005488:	003ed006 	br	2004fcc <process_command+0x98>
 200548c:	d9001104 	addi	r4,sp,68
 2005490:	20074680 	call	2007468 <get_accel>
 2005494:	d900120f 	ldh	r4,72(sp)
 2005498:	20071780 	call	2007178 <print_int>
 200549c:	01000284 	movi	r4,10
 20054a0:	2019cc00 	call	2019cc0 <alt_putchar>
 20054a4:	003ec906 	br	2004fcc <process_command+0x98>
 20054a8:	2004d380 	call	2004d38 <get_user_depth>
 20054ac:	1009883a 	mov	r4,r2
 20054b0:	20071780 	call	2007178 <print_int>
 20054b4:	01000284 	movi	r4,10
 20054b8:	2019cc00 	call	2019cc0 <alt_putchar>
 20054bc:	003ec306 	br	2004fcc <process_command+0x98>
 20054c0:	20074080 	call	2007408 <get_pwm_freq>
 20054c4:	1009883a 	mov	r4,r2
 20054c8:	20071780 	call	2007178 <print_int>
 20054cc:	01000284 	movi	r4,10
 20054d0:	2019cc00 	call	2019cc0 <alt_putchar>
 20054d4:	0009883a 	mov	r4,zero
 20054d8:	200723c0 	call	200723c <get_motor_dir>
 20054dc:	11003fcc 	andi	r4,r2,255
 20054e0:	2100201c 	xori	r4,r4,128
 20054e4:	213fe004 	addi	r4,r4,-128
 20054e8:	2019cc00 	call	2019cc0 <alt_putchar>
 20054ec:	01000b04 	movi	r4,44
 20054f0:	2019cc00 	call	2019cc0 <alt_putchar>
 20054f4:	01000044 	movi	r4,1
 20054f8:	200723c0 	call	200723c <get_motor_dir>
 20054fc:	11003fcc 	andi	r4,r2,255
 2005500:	2100201c 	xori	r4,r4,128
 2005504:	213fe004 	addi	r4,r4,-128
 2005508:	2019cc00 	call	2019cc0 <alt_putchar>
 200550c:	01000b04 	movi	r4,44
 2005510:	2019cc00 	call	2019cc0 <alt_putchar>
 2005514:	01000084 	movi	r4,2
 2005518:	200723c0 	call	200723c <get_motor_dir>
 200551c:	11003fcc 	andi	r4,r2,255
 2005520:	2100201c 	xori	r4,r4,128
 2005524:	213fe004 	addi	r4,r4,-128
 2005528:	2019cc00 	call	2019cc0 <alt_putchar>
 200552c:	01000b04 	movi	r4,44
 2005530:	2019cc00 	call	2019cc0 <alt_putchar>
 2005534:	010000c4 	movi	r4,3
 2005538:	200723c0 	call	200723c <get_motor_dir>
 200553c:	11003fcc 	andi	r4,r2,255
 2005540:	2100201c 	xori	r4,r4,128
 2005544:	213fe004 	addi	r4,r4,-128
 2005548:	2019cc00 	call	2019cc0 <alt_putchar>
 200554c:	01000b04 	movi	r4,44
 2005550:	2019cc00 	call	2019cc0 <alt_putchar>
 2005554:	01000104 	movi	r4,4
 2005558:	200723c0 	call	200723c <get_motor_dir>
 200555c:	11003fcc 	andi	r4,r2,255
 2005560:	2100201c 	xori	r4,r4,128
 2005564:	213fe004 	addi	r4,r4,-128
 2005568:	2019cc00 	call	2019cc0 <alt_putchar>
 200556c:	01000b04 	movi	r4,44
 2005570:	2019cc00 	call	2019cc0 <alt_putchar>
 2005574:	01000144 	movi	r4,5
 2005578:	200723c0 	call	200723c <get_motor_dir>
 200557c:	11003fcc 	andi	r4,r2,255
 2005580:	2100201c 	xori	r4,r4,128
 2005584:	213fe004 	addi	r4,r4,-128
 2005588:	2019cc00 	call	2019cc0 <alt_putchar>
 200558c:	01000284 	movi	r4,10
 2005590:	2019cc00 	call	2019cc0 <alt_putchar>
 2005594:	0009883a 	mov	r4,zero
 2005598:	20073dc0 	call	20073dc <get_motor_duty_cycle>
 200559c:	1009883a 	mov	r4,r2
 20055a0:	20071780 	call	2007178 <print_int>
 20055a4:	01000b04 	movi	r4,44
 20055a8:	2019cc00 	call	2019cc0 <alt_putchar>
 20055ac:	01000044 	movi	r4,1
 20055b0:	20073dc0 	call	20073dc <get_motor_duty_cycle>
 20055b4:	1009883a 	mov	r4,r2
 20055b8:	20071780 	call	2007178 <print_int>
 20055bc:	01000b04 	movi	r4,44
 20055c0:	2019cc00 	call	2019cc0 <alt_putchar>
 20055c4:	01000084 	movi	r4,2
 20055c8:	20073dc0 	call	20073dc <get_motor_duty_cycle>
 20055cc:	1009883a 	mov	r4,r2
 20055d0:	20071780 	call	2007178 <print_int>
 20055d4:	01000b04 	movi	r4,44
 20055d8:	2019cc00 	call	2019cc0 <alt_putchar>
 20055dc:	010000c4 	movi	r4,3
 20055e0:	20073dc0 	call	20073dc <get_motor_duty_cycle>
 20055e4:	1009883a 	mov	r4,r2
 20055e8:	20071780 	call	2007178 <print_int>
 20055ec:	01000b04 	movi	r4,44
 20055f0:	2019cc00 	call	2019cc0 <alt_putchar>
 20055f4:	01000104 	movi	r4,4
 20055f8:	20073dc0 	call	20073dc <get_motor_duty_cycle>
 20055fc:	1009883a 	mov	r4,r2
 2005600:	20071780 	call	2007178 <print_int>
 2005604:	01000b04 	movi	r4,44
 2005608:	2019cc00 	call	2019cc0 <alt_putchar>
 200560c:	01000144 	movi	r4,5
 2005610:	20073dc0 	call	20073dc <get_motor_duty_cycle>
 2005614:	1009883a 	mov	r4,r2
 2005618:	20071780 	call	2007178 <print_int>
 200561c:	01000284 	movi	r4,10
 2005620:	2019cc00 	call	2019cc0 <alt_putchar>
 2005624:	003e6906 	br	2004fcc <process_command+0x98>
 2005628:	d9000404 	addi	r4,sp,16
 200562c:	20065080 	call	2006508 <get_imu_orientation>
 2005630:	d9000417 	ldw	r4,16(sp)
 2005634:	20071780 	call	2007178 <print_int>
 2005638:	01000b04 	movi	r4,44
 200563c:	2019cc00 	call	2019cc0 <alt_putchar>
 2005640:	d9000517 	ldw	r4,20(sp)
 2005644:	20071780 	call	2007178 <print_int>
 2005648:	01000b04 	movi	r4,44
 200564c:	2019cc00 	call	2019cc0 <alt_putchar>
 2005650:	d9000617 	ldw	r4,24(sp)
 2005654:	20071780 	call	2007178 <print_int>
 2005658:	01000284 	movi	r4,10
 200565c:	2019cc00 	call	2019cc0 <alt_putchar>
 2005660:	003e5a06 	br	2004fcc <process_command+0x98>
 2005664:	d9001104 	addi	r4,sp,68
 2005668:	20074680 	call	2007468 <get_accel>
 200566c:	d900110f 	ldh	r4,68(sp)
 2005670:	20071780 	call	2007178 <print_int>
 2005674:	01000284 	movi	r4,10
 2005678:	2019cc00 	call	2019cc0 <alt_putchar>
 200567c:	003e5306 	br	2004fcc <process_command+0x98>
 2005680:	a009883a 	mov	r4,r20
 2005684:	20070c40 	call	20070c4 <read_hex>
 2005688:	0009883a 	mov	r4,zero
 200568c:	000b883a 	mov	r5,zero
 2005690:	1021883a 	mov	r16,r2
 2005694:	20071940 	call	2007194 <set_motor_dir>
 2005698:	01000044 	movi	r4,1
 200569c:	000b883a 	mov	r5,zero
 20056a0:	20071940 	call	2007194 <set_motor_dir>
 20056a4:	01000084 	movi	r4,2
 20056a8:	000b883a 	mov	r5,zero
 20056ac:	20071940 	call	2007194 <set_motor_dir>
 20056b0:	010000c4 	movi	r4,3
 20056b4:	000b883a 	mov	r5,zero
 20056b8:	20071940 	call	2007194 <set_motor_dir>
 20056bc:	01000104 	movi	r4,4
 20056c0:	000b883a 	mov	r5,zero
 20056c4:	20071940 	call	2007194 <set_motor_dir>
 20056c8:	000b883a 	mov	r5,zero
 20056cc:	01000144 	movi	r4,5
 20056d0:	20071940 	call	2007194 <set_motor_dir>
 20056d4:	8009883a 	mov	r4,r16
 20056d8:	8400004c 	andi	r16,r16,1
 20056dc:	20071880 	call	2007188 <set_pow>
 20056e0:	80003a26 	beq	r16,zero,20057cc <process_command+0x898>
 20056e4:	014080b4 	movhi	r5,514
 20056e8:	29759b04 	addi	r5,r5,-10644
 20056ec:	010080b4 	movhi	r4,514
 20056f0:	2135b204 	addi	r4,r4,-10552
 20056f4:	200b8c80 	call	200b8c8 <printf>
 20056f8:	003e3406 	br	2004fcc <process_command+0x98>
 20056fc:	d8800b04 	addi	r2,sp,44
 2005700:	d8800015 	stw	r2,0(sp)
 2005704:	d8800904 	addi	r2,sp,36
 2005708:	a009883a 	mov	r4,r20
 200570c:	d9800f04 	addi	r6,sp,60
 2005710:	d9c00d04 	addi	r7,sp,52
 2005714:	d8800115 	stw	r2,4(sp)
 2005718:	014080b4 	movhi	r5,514
 200571c:	29760204 	addi	r5,r5,-10232
 2005720:	200ba680 	call	200ba68 <sscanf>
 2005724:	d8800b17 	ldw	r2,44(sp)
 2005728:	d9000f17 	ldw	r4,60(sp)
 200572c:	d9401017 	ldw	r5,64(sp)
 2005730:	d8800015 	stw	r2,0(sp)
 2005734:	d8800c17 	ldw	r2,48(sp)
 2005738:	d9800d17 	ldw	r6,52(sp)
 200573c:	d9c00e17 	ldw	r7,56(sp)
 2005740:	d8800115 	stw	r2,4(sp)
 2005744:	d8800917 	ldw	r2,36(sp)
 2005748:	d8800215 	stw	r2,8(sp)
 200574c:	d8800a17 	ldw	r2,40(sp)
 2005750:	d8800315 	stw	r2,12(sp)
 2005754:	20009f80 	call	20009f8 <set_pid_constants_depth>
 2005758:	003e1c06 	br	2004fcc <process_command+0x98>
 200575c:	d8800b04 	addi	r2,sp,44
 2005760:	d8800015 	stw	r2,0(sp)
 2005764:	d8800904 	addi	r2,sp,36
 2005768:	a009883a 	mov	r4,r20
 200576c:	d9800f04 	addi	r6,sp,60
 2005770:	d9c00d04 	addi	r7,sp,52
 2005774:	d8800115 	stw	r2,4(sp)
 2005778:	014080b4 	movhi	r5,514
 200577c:	29760204 	addi	r5,r5,-10232
 2005780:	200ba680 	call	200ba68 <sscanf>
 2005784:	d8800b17 	ldw	r2,44(sp)
 2005788:	d9000f17 	ldw	r4,60(sp)
 200578c:	d9401017 	ldw	r5,64(sp)
 2005790:	d8800015 	stw	r2,0(sp)
 2005794:	d8800c17 	ldw	r2,48(sp)
 2005798:	d9800d17 	ldw	r6,52(sp)
 200579c:	d9c00e17 	ldw	r7,56(sp)
 20057a0:	d8800115 	stw	r2,4(sp)
 20057a4:	d8800917 	ldw	r2,36(sp)
 20057a8:	d8800215 	stw	r2,8(sp)
 20057ac:	d8800a17 	ldw	r2,40(sp)
 20057b0:	d8800315 	stw	r2,12(sp)
 20057b4:	20007f40 	call	20007f4 <set_pid_constants_pitch>
 20057b8:	003e0406 	br	2004fcc <process_command+0x98>
 20057bc:	010080b4 	movhi	r4,514
 20057c0:	2135bf04 	addi	r4,r4,-10500
 20057c4:	200b9880 	call	200b988 <puts>
 20057c8:	003e0006 	br	2004fcc <process_command+0x98>
 20057cc:	014080b4 	movhi	r5,514
 20057d0:	29759a04 	addi	r5,r5,-10648
 20057d4:	003fc506 	br	20056ec <process_command+0x7b8>
 20057d8:	014080b4 	movhi	r5,514
 20057dc:	29759a04 	addi	r5,r5,-10648
 20057e0:	003f1a06 	br	200544c <process_command+0x518>
 20057e4:	0009883a 	mov	r4,zero
 20057e8:	01400084 	movi	r5,2
 20057ec:	20071940 	call	2007194 <set_motor_dir>
 20057f0:	010080b4 	movhi	r4,514
 20057f4:	2135c804 	addi	r4,r4,-10464
 20057f8:	000b883a 	mov	r5,zero
 20057fc:	200b8c80 	call	200b8c8 <printf>
 2005800:	01000044 	movi	r4,1
 2005804:	01400084 	movi	r5,2
 2005808:	20071940 	call	2007194 <set_motor_dir>
 200580c:	010080b4 	movhi	r4,514
 2005810:	2135c804 	addi	r4,r4,-10464
 2005814:	01400044 	movi	r5,1
 2005818:	200b8c80 	call	200b8c8 <printf>
 200581c:	01000084 	movi	r4,2
 2005820:	200b883a 	mov	r5,r4
 2005824:	20071940 	call	2007194 <set_motor_dir>
 2005828:	010080b4 	movhi	r4,514
 200582c:	2135c804 	addi	r4,r4,-10464
 2005830:	01400084 	movi	r5,2
 2005834:	200b8c80 	call	200b8c8 <printf>
 2005838:	010000c4 	movi	r4,3
 200583c:	01400084 	movi	r5,2
 2005840:	20071940 	call	2007194 <set_motor_dir>
 2005844:	010080b4 	movhi	r4,514
 2005848:	2135c804 	addi	r4,r4,-10464
 200584c:	014000c4 	movi	r5,3
 2005850:	200b8c80 	call	200b8c8 <printf>
 2005854:	01000104 	movi	r4,4
 2005858:	01400084 	movi	r5,2
 200585c:	20071940 	call	2007194 <set_motor_dir>
 2005860:	010080b4 	movhi	r4,514
 2005864:	2135c804 	addi	r4,r4,-10464
 2005868:	01400104 	movi	r5,4
 200586c:	200b8c80 	call	200b8c8 <printf>
 2005870:	01000144 	movi	r4,5
 2005874:	01400084 	movi	r5,2
 2005878:	20071940 	call	2007194 <set_motor_dir>
 200587c:	010080b4 	movhi	r4,514
 2005880:	2135c804 	addi	r4,r4,-10464
 2005884:	01400144 	movi	r5,5
 2005888:	200b8c80 	call	200b8c8 <printf>
 200588c:	003dcf06 	br	2004fcc <process_command+0x98>
 2005890:	0009883a 	mov	r4,zero
 2005894:	000b883a 	mov	r5,zero
 2005898:	20071940 	call	2007194 <set_motor_dir>
 200589c:	010080b4 	movhi	r4,514
 20058a0:	2135ba04 	addi	r4,r4,-10520
 20058a4:	000b883a 	mov	r5,zero
 20058a8:	200b8c80 	call	200b8c8 <printf>
 20058ac:	01000044 	movi	r4,1
 20058b0:	000b883a 	mov	r5,zero
 20058b4:	20071940 	call	2007194 <set_motor_dir>
 20058b8:	010080b4 	movhi	r4,514
 20058bc:	2135ba04 	addi	r4,r4,-10520
 20058c0:	01400044 	movi	r5,1
 20058c4:	200b8c80 	call	200b8c8 <printf>
 20058c8:	01000084 	movi	r4,2
 20058cc:	000b883a 	mov	r5,zero
 20058d0:	20071940 	call	2007194 <set_motor_dir>
 20058d4:	010080b4 	movhi	r4,514
 20058d8:	2135ba04 	addi	r4,r4,-10520
 20058dc:	01400084 	movi	r5,2
 20058e0:	200b8c80 	call	200b8c8 <printf>
 20058e4:	010000c4 	movi	r4,3
 20058e8:	000b883a 	mov	r5,zero
 20058ec:	20071940 	call	2007194 <set_motor_dir>
 20058f0:	010080b4 	movhi	r4,514
 20058f4:	2135ba04 	addi	r4,r4,-10520
 20058f8:	014000c4 	movi	r5,3
 20058fc:	200b8c80 	call	200b8c8 <printf>
 2005900:	01000104 	movi	r4,4
 2005904:	000b883a 	mov	r5,zero
 2005908:	20071940 	call	2007194 <set_motor_dir>
 200590c:	010080b4 	movhi	r4,514
 2005910:	2135ba04 	addi	r4,r4,-10520
 2005914:	01400104 	movi	r5,4
 2005918:	200b8c80 	call	200b8c8 <printf>
 200591c:	01000144 	movi	r4,5
 2005920:	000b883a 	mov	r5,zero
 2005924:	20071940 	call	2007194 <set_motor_dir>
 2005928:	010080b4 	movhi	r4,514
 200592c:	2135ba04 	addi	r4,r4,-10520
 2005930:	01400144 	movi	r5,5
 2005934:	200b8c80 	call	200b8c8 <printf>
 2005938:	003da406 	br	2004fcc <process_command+0x98>
 200593c:	0009883a 	mov	r4,zero
 2005940:	01400044 	movi	r5,1
 2005944:	20071940 	call	2007194 <set_motor_dir>
 2005948:	010080b4 	movhi	r4,514
 200594c:	2135c304 	addi	r4,r4,-10484
 2005950:	000b883a 	mov	r5,zero
 2005954:	200b8c80 	call	200b8c8 <printf>
 2005958:	01000044 	movi	r4,1
 200595c:	200b883a 	mov	r5,r4
 2005960:	20071940 	call	2007194 <set_motor_dir>
 2005964:	010080b4 	movhi	r4,514
 2005968:	2135c304 	addi	r4,r4,-10484
 200596c:	01400044 	movi	r5,1
 2005970:	200b8c80 	call	200b8c8 <printf>
 2005974:	01000084 	movi	r4,2
 2005978:	01400044 	movi	r5,1
 200597c:	20071940 	call	2007194 <set_motor_dir>
 2005980:	010080b4 	movhi	r4,514
 2005984:	2135c304 	addi	r4,r4,-10484
 2005988:	01400084 	movi	r5,2
 200598c:	200b8c80 	call	200b8c8 <printf>
 2005990:	010000c4 	movi	r4,3
 2005994:	01400044 	movi	r5,1
 2005998:	20071940 	call	2007194 <set_motor_dir>
 200599c:	010080b4 	movhi	r4,514
 20059a0:	2135c304 	addi	r4,r4,-10484
 20059a4:	014000c4 	movi	r5,3
 20059a8:	200b8c80 	call	200b8c8 <printf>
 20059ac:	01000104 	movi	r4,4
 20059b0:	01400044 	movi	r5,1
 20059b4:	20071940 	call	2007194 <set_motor_dir>
 20059b8:	010080b4 	movhi	r4,514
 20059bc:	2135c304 	addi	r4,r4,-10484
 20059c0:	01400104 	movi	r5,4
 20059c4:	200b8c80 	call	200b8c8 <printf>
 20059c8:	01000144 	movi	r4,5
 20059cc:	01400044 	movi	r5,1
 20059d0:	20071940 	call	2007194 <set_motor_dir>
 20059d4:	010080b4 	movhi	r4,514
 20059d8:	2135c304 	addi	r4,r4,-10484
 20059dc:	01400144 	movi	r5,5
 20059e0:	200b8c80 	call	200b8c8 <printf>
 20059e4:	003d7906 	br	2004fcc <process_command+0x98>
